
project_soft.elf:     file format elf32-littlenios2
project_soft.elf
architecture: nios2:r1, flags 0x00000112:
EXEC_P, HAS_SYMS, D_PAGED
start address 0x00020244

Program Header:
    LOAD off    0x00001000 vaddr 0x00020000 paddr 0x00020000 align 2**12
         filesz 0x00000020 memsz 0x00000020 flags r-x
    LOAD off    0x00001020 vaddr 0x00020020 paddr 0x00020020 align 2**12
         filesz 0x000136ec memsz 0x000136ec flags r-x
    LOAD off    0x0001470c vaddr 0x0003370c paddr 0x000351f8 align 2**12
         filesz 0x00001aec memsz 0x00001aec flags rw-
    LOAD off    0x00016ce4 vaddr 0x00036ce4 paddr 0x00036ce4 align 2**12
         filesz 0x00000000 memsz 0x00000160 flags rw-

Sections:
Idx Name          Size      VMA       LMA       File off  Algn
  0 .entry        00000020  00020000  00020000  00001000  2**5
                  CONTENTS, ALLOC, LOAD, READONLY, CODE
  1 .exceptions   00000224  00020020  00020020  00001020  2**2
                  CONTENTS, ALLOC, LOAD, READONLY, CODE
  2 .text         000130f8  00020244  00020244  00001244  2**2
                  CONTENTS, ALLOC, LOAD, READONLY, CODE
  3 .rodata       000003d0  0003333c  0003333c  0001433c  2**2
                  CONTENTS, ALLOC, LOAD, READONLY, DATA
  4 .rwdata       00001aec  0003370c  000351f8  0001470c  2**2
                  CONTENTS, ALLOC, LOAD, DATA, SMALL_DATA
  5 .bss          00000160  00036ce4  00036ce4  00016ce4  2**2
                  ALLOC, SMALL_DATA
  6 .MEMOIRE_ONCHIP 00000000  00036e44  00036e44  000161f8  2**0
                  CONTENTS
  7 .comment      00000023  00000000  00000000  000161f8  2**0
                  CONTENTS, READONLY
  8 .debug_aranges 00000f88  00000000  00000000  00016220  2**3
                  CONTENTS, READONLY, DEBUGGING
  9 .debug_info   00026bcc  00000000  00000000  000171a8  2**0
                  CONTENTS, READONLY, DEBUGGING
 10 .debug_abbrev 00009a5a  00000000  00000000  0003dd74  2**0
                  CONTENTS, READONLY, DEBUGGING
 11 .debug_line   0000ceb7  00000000  00000000  000477ce  2**0
                  CONTENTS, READONLY, DEBUGGING
 12 .debug_frame  0000231c  00000000  00000000  00054688  2**2
                  CONTENTS, READONLY, DEBUGGING
 13 .debug_str    00003a1c  00000000  00000000  000569a4  2**0
                  CONTENTS, READONLY, DEBUGGING
 14 .debug_loc    0001c53f  00000000  00000000  0005a3c0  2**0
                  CONTENTS, READONLY, DEBUGGING
 15 .debug_alt_sim_info 00000020  00000000  00000000  00076900  2**2
                  CONTENTS, READONLY, DEBUGGING
 16 .debug_ranges 00001a88  00000000  00000000  00076920  2**3
                  CONTENTS, READONLY, DEBUGGING
 17 .thread_model 00000003  00000000  00000000  0007b71e  2**0
                  CONTENTS, READONLY
 18 .cpu          0000000a  00000000  00000000  0007b721  2**0
                  CONTENTS, READONLY
 19 .qsys         00000001  00000000  00000000  0007b72b  2**0
                  CONTENTS, READONLY
 20 .simulation_enabled 00000001  00000000  00000000  0007b72c  2**0
                  CONTENTS, READONLY
 21 .sysid_hash   00000004  00000000  00000000  0007b72d  2**0
                  CONTENTS, READONLY
 22 .sysid_base   00000004  00000000  00000000  0007b731  2**0
                  CONTENTS, READONLY
 23 .sysid_time   00000004  00000000  00000000  0007b735  2**0
                  CONTENTS, READONLY
 24 .stderr_dev   0000000b  00000000  00000000  0007b739  2**0
                  CONTENTS, READONLY
 25 .stdin_dev    0000000b  00000000  00000000  0007b744  2**0
                  CONTENTS, READONLY
 26 .stdout_dev   0000000b  00000000  00000000  0007b74f  2**0
                  CONTENTS, READONLY
 27 .sopc_system_name 00000006  00000000  00000000  0007b75a  2**0
                  CONTENTS, READONLY
 28 .quartus_project_dir 0000001f  00000000  00000000  0007b760  2**0
                  CONTENTS, READONLY
 29 .jdi          0000538d  00000000  00000000  0007b77f  2**0
                  CONTENTS, READONLY
 30 .sopcinfo     0006e578  00000000  00000000  00080b0c  2**0
                  CONTENTS, READONLY
SYMBOL TABLE:
00020000 l    d  .entry	00000000 .entry
00020020 l    d  .exceptions	00000000 .exceptions
00020244 l    d  .text	00000000 .text
0003333c l    d  .rodata	00000000 .rodata
0003370c l    d  .rwdata	00000000 .rwdata
00036ce4 l    d  .bss	00000000 .bss
00036e44 l    d  .MEMOIRE_ONCHIP	00000000 .MEMOIRE_ONCHIP
00000000 l    d  .comment	00000000 .comment
00000000 l    d  .debug_aranges	00000000 .debug_aranges
00000000 l    d  .debug_info	00000000 .debug_info
00000000 l    d  .debug_abbrev	00000000 .debug_abbrev
00000000 l    d  .debug_line	00000000 .debug_line
00000000 l    d  .debug_frame	00000000 .debug_frame
00000000 l    d  .debug_str	00000000 .debug_str
00000000 l    d  .debug_loc	00000000 .debug_loc
00000000 l    d  .debug_alt_sim_info	00000000 .debug_alt_sim_info
00000000 l    d  .debug_ranges	00000000 .debug_ranges
00000000 l    df *ABS*	00000000 ../project_soft_bsp//obj/HAL/src/crt0.o
0002027c l       .text	00000000 alt_after_alt_main
00000000 l    df *ABS*	00000000 alt_irq_handler.c
00000000 l    df *ABS*	00000000 alt_instruction_exception_entry.c
00000000 l    df *ABS*	00000000 buzzer.c
00000000 l    df *ABS*	00000000 hello_world.c
00000000 l    df *ABS*	00000000 hex.c
00033368 l     O .rodata	00000058 chars
00000000 l    df *ABS*	00000000 ptime.c
00000000 l    df *ABS*	00000000 printf.c
00000000 l    df *ABS*	00000000 puts.c
00000000 l    df *ABS*	00000000 sprintf.c
00000000 l    df *ABS*	00000000 strlen.c
00000000 l    df *ABS*	00000000 vfprintf.c
00033412 l     O .rodata	00000010 zeroes.4389
00033422 l     O .rodata	00000010 blanks.4388
00000000 l    df *ABS*	00000000 vfprintf.c
00033432 l     O .rodata	00000010 zeroes.4404
00025274 l     F .text	000000bc __sbprintf
00033442 l     O .rodata	00000010 blanks.4403
00000000 l    df *ABS*	00000000 wsetup.c
00000000 l    df *ABS*	00000000 dtoa.c
00025484 l     F .text	00000200 quorem
00000000 l    df *ABS*	00000000 fflush.c
00000000 l    df *ABS*	00000000 findfp.c
00026fb4 l     F .text	00000008 __fp_unlock
00026fc8 l     F .text	0000019c __sinit.part.1
00027164 l     F .text	00000008 __fp_lock
00000000 l    df *ABS*	00000000 mallocr.c
00000000 l    df *ABS*	00000000 fvwrite.c
00000000 l    df *ABS*	00000000 fwalk.c
00000000 l    df *ABS*	00000000 impure.c
0003370c l     O .rwdata	00000424 impure_data
00000000 l    df *ABS*	00000000 locale.c
00033b50 l     O .rwdata	00000020 lc_ctype_charset
00033b30 l     O .rwdata	00000020 lc_message_charset
00033b70 l     O .rwdata	00000038 lconv
00000000 l    df *ABS*	00000000 makebuf.c
00000000 l    df *ABS*	00000000 mallocr.c
00000000 l    df *ABS*	00000000 memchr.c
00000000 l    df *ABS*	00000000 memcpy.c
00000000 l    df *ABS*	00000000 memmove.c
00000000 l    df *ABS*	00000000 memset.c
00000000 l    df *ABS*	00000000 mprec.c
00033474 l     O .rodata	0000000c p05.2768
00000000 l    df *ABS*	00000000 mallocr.c
00000000 l    df *ABS*	00000000 s_fpclassify.c
00000000 l    df *ABS*	00000000 sbrkr.c
00000000 l    df *ABS*	00000000 stdio.c
00000000 l    df *ABS*	00000000 strcmp.c
00000000 l    df *ABS*	00000000 vfprintf.c
000335a8 l     O .rodata	00000010 blanks.4332
00033598 l     O .rodata	00000010 zeroes.4333
00000000 l    df *ABS*	00000000 vfprintf.c
0002b96c l     F .text	000000fc __sprint_r.part.0
000335c8 l     O .rodata	00000010 blanks.4348
000335b8 l     O .rodata	00000010 zeroes.4349
0002cef8 l     F .text	000000bc __sbprintf
00000000 l    df *ABS*	00000000 writer.c
00000000 l    df *ABS*	00000000 closer.c
00000000 l    df *ABS*	00000000 mallocr.c
00000000 l    df *ABS*	00000000 fclose.c
00000000 l    df *ABS*	00000000 fputwc.c
00000000 l    df *ABS*	00000000 fstatr.c
00000000 l    df *ABS*	00000000 int_errno.c
00000000 l    df *ABS*	00000000 isattyr.c
00000000 l    df *ABS*	00000000 lseekr.c
00000000 l    df *ABS*	00000000 readr.c
00000000 l    df *ABS*	00000000 wbuf.c
00000000 l    df *ABS*	00000000 wcrtomb.c
00000000 l    df *ABS*	00000000 wctomb_r.c
00000000 l    df *ABS*	00000000 libgcc2.c
00000000 l    df *ABS*	00000000 libgcc2.c
00000000 l    df *ABS*	00000000 lib2-divmod.c
00000000 l    df *ABS*	00000000 adddf3.c
00000000 l    df *ABS*	00000000 divdf3.c
00000000 l    df *ABS*	00000000 eqdf2.c
00000000 l    df *ABS*	00000000 gedf2.c
00000000 l    df *ABS*	00000000 ledf2.c
00000000 l    df *ABS*	00000000 muldf3.c
00000000 l    df *ABS*	00000000 subdf3.c
00000000 l    df *ABS*	00000000 fixdfsi.c
00000000 l    df *ABS*	00000000 floatsidf.c
00000000 l    df *ABS*	00000000 floatunsidf.c
00000000 l    df *ABS*	00000000 libgcc2.c
00000000 l    df *ABS*	00000000 libgcc2.c
00000000 l    df *ABS*	00000000 alt_close.c
00030bb4 l     F .text	0000003c alt_get_errno
00000000 l    df *ABS*	00000000 alt_dev.c
00030cc0 l     F .text	0000002c alt_dev_null_write
00000000 l    df *ABS*	00000000 alt_errno.c
00000000 l    df *ABS*	00000000 alt_fstat.c
00030cec l     F .text	0000003c alt_get_errno
00000000 l    df *ABS*	00000000 alt_isatty.c
00030dd8 l     F .text	0000003c alt_get_errno
00000000 l    df *ABS*	00000000 alt_load.c
00030eb8 l     F .text	00000068 alt_load_section
00000000 l    df *ABS*	00000000 alt_lseek.c
00030fa4 l     F .text	0000003c alt_get_errno
00000000 l    df *ABS*	00000000 alt_main.c
00000000 l    df *ABS*	00000000 alt_malloc_lock.c
00000000 l    df *ABS*	00000000 alt_read.c
00031178 l     F .text	0000003c alt_get_errno
00000000 l    df *ABS*	00000000 alt_release_fd.c
00000000 l    df *ABS*	00000000 alt_sbrk.c
000351e8 l     O .rwdata	00000004 heap_end
00000000 l    df *ABS*	00000000 alt_write.c
000313c4 l     F .text	0000003c alt_get_errno
00000000 l    df *ABS*	00000000 alt_sys_init.c
000314f8 l     F .text	00000034 alt_dev_reg
00034158 l     O .rwdata	00001060 jtag_uart_0
00000000 l    df *ABS*	00000000 altera_avalon_jtag_uart_fd.c
00000000 l    df *ABS*	00000000 altera_avalon_jtag_uart_init.c
000317ec l     F .text	0000020c altera_avalon_jtag_uart_irq
000319f8 l     F .text	000000a0 altera_avalon_jtag_uart_timeout
00000000 l    df *ABS*	00000000 altera_avalon_jtag_uart_ioctl.c
00000000 l    df *ABS*	00000000 altera_avalon_jtag_uart_read.c
00000000 l    df *ABS*	00000000 altera_avalon_jtag_uart_write.c
00000000 l    df *ABS*	00000000 altera_avalon_timer_sc.c
00032030 l     F .text	00000078 alt_avalon_timer_sc_irq
00000000 l    df *ABS*	00000000 alt_alarm_start.c
00000000 l    df *ABS*	00000000 alt_dcache_flush_all.c
00000000 l    df *ABS*	00000000 alt_dev_llist_insert.c
00032270 l     F .text	0000003c alt_get_errno
00000000 l    df *ABS*	00000000 alt_do_ctors.c
00000000 l    df *ABS*	00000000 alt_do_dtors.c
00000000 l    df *ABS*	00000000 alt_icache_flush_all.c
00000000 l    df *ABS*	00000000 alt_iic.c
00000000 l    df *ABS*	00000000 alt_iic_isr_register.c
00000000 l    df *ABS*	00000000 alt_io_redirect.c
000326e4 l     F .text	000000c4 alt_open_fd
00000000 l    df *ABS*	00000000 alt_irq_vars.c
00000000 l    df *ABS*	00000000 alt_open.c
00032824 l     F .text	0000003c alt_get_errno
00032860 l     F .text	000000c4 alt_file_locked
00000000 l    df *ABS*	00000000 alt_tick.c
00000000 l    df *ABS*	00000000 altera_nios2_gen2_irq.c
00000000 l    df *ABS*	00000000 alt_find_dev.c
00000000 l    df *ABS*	00000000 alt_find_file.c
00000000 l    df *ABS*	00000000 alt_get_fd.c
00000000 l    df *ABS*	00000000 alt_icache_flush.c
00000000 l    df *ABS*	00000000 atexit.c
00000000 l    df *ABS*	00000000 exit.c
00000000 l    df *ABS*	00000000 memcmp.c
00000000 l    df *ABS*	00000000 __atexit.c
00000000 l    df *ABS*	00000000 __call_atexit.c
00000000 l    df *ABS*	00000000 alt_exit.c
00036d18 g     O .bss	00000004 alt_instruction_exception_handler
00029ba4 g     F .text	00000074 _mprec_log10
00029c90 g     F .text	0000008c __any_on
0002d494 g     F .text	00000054 _isatty_r
00033480 g     O .rodata	00000028 __mprec_tinytens
000310b4 g     F .text	0000007c alt_main
00020c58 g     F .text	000000c0 _puts_r
00036d44 g     O .bss	00000100 alt_irq
0002d4e8 g     F .text	00000060 _lseek_r
000351f8 g       *ABS*	00000000 __flash_rwdata_start
0002f6e0 g     F .text	00000088 .hidden __eqdf2
00036e44 g       *ABS*	00000000 __alt_heap_start
00020c1c g     F .text	0000003c printf
0002d700 g     F .text	0000009c _wcrtomb_r
0002a420 g     F .text	0000005c __sseek
00027304 g     F .text	00000010 __sinit
0002d5a8 g     F .text	00000140 __swbuf_r
00027dcc g     F .text	0000007c _setlocale_r
0002716c g     F .text	00000068 __sfmoreglue
00031154 g     F .text	00000024 __malloc_unlock
00028a9c g     F .text	0000015c memmove
000272ec g     F .text	00000018 _cleanup
00028d20 g     F .text	000000a8 _Balloc
0002f768 g     F .text	000000dc .hidden __gtdf2
00032c1c g     F .text	00000024 altera_nios2_gen2_irq_init
00020000 g     F .entry	0000001c __reset
00020020 g       *ABS*	00000000 __flash_exceptions_start
0002d438 g     F .text	0000005c _fstat_r
00036cfc g     O .bss	00000004 errno
0002a39c g     F .text	00000008 __seofread
0002a730 g     F .text	0000123c ___svfiprintf_internal_r
00036d04 g     O .bss	00000004 alt_argv
0003d1b8 g       *ABS*	00000000 _gp
00033fd8 g     O .rwdata	00000180 alt_fd_list
00032c40 g     F .text	00000090 alt_find_dev
00028954 g     F .text	00000148 memcpy
00026fbc g     F .text	0000000c _cleanup_r
000309cc g     F .text	000000dc .hidden __floatsidf
000202ec g     F .text	000000a0 buzzer_set_volume
000327a8 g     F .text	0000007c alt_io_redirect
0002f844 g     F .text	000000f4 .hidden __ltdf2
0003333c g       *ABS*	00000000 __DTOR_END__
00020d18 g     F .text	00000014 puts
00032f0c g     F .text	0000009c alt_exception_cause_generated_bad_addr
0002a280 g     F .text	00000074 __fpclassifyd
00029b00 g     F .text	000000a4 __ratio
0002cedc g     F .text	0000001c __vfiprintf_internal
00031bf0 g     F .text	0000021c altera_avalon_jtag_uart_read
00020bec g     F .text	00000030 _printf_r
0002e490 g     F .text	00000064 .hidden __udivsi3
00030e14 g     F .text	000000a4 isatty
00020280 g     F .text	0000006c buzzer_set_note
000334d0 g     O .rodata	000000c8 __mprec_tens
00027e48 g     F .text	0000000c __locale_charset
00032e7c g     F .text	00000090 alt_icache_flush
00020af0 g     F .text	000000fc time_print
00036cf8 g     O .bss	00000004 __malloc_top_pad
000351c0 g     O .rwdata	00000004 __mb_cur_max
00027e78 g     F .text	0000000c _localeconv_r
0002912c g     F .text	0000003c __i2b
00027788 g     F .text	000004bc __sfvwrite_r
0002a2f4 g     F .text	00000054 _sbrk_r
0002d548 g     F .text	00000060 _read_r
000351e0 g     O .rwdata	00000004 alt_max_fd
0002d12c g     F .text	000000f0 _fclose_r
00026f84 g     F .text	00000030 fflush
00036cf4 g     O .bss	00000004 __malloc_max_sbrked_mem
0002e54c g     F .text	000008ac .hidden __adddf3
000298a8 g     F .text	0000010c __b2d
0002de60 g     F .text	00000538 .hidden __umoddi3
00030fe0 g     F .text	000000d4 lseek
000351b8 g     O .rwdata	00000004 _global_impure_ptr
00029d1c g     F .text	00000564 _realloc_r
00036e44 g       *ABS*	00000000 __bss_end
000325f4 g     F .text	000000f0 alt_iic_isr_register
00032b14 g     F .text	00000108 alt_tick
0002d8e8 g     F .text	00000578 .hidden __udivdi3
0002d394 g     F .text	00000024 _fputwc_r
000334a8 g     O .rodata	00000028 __mprec_bigtens
00028f10 g     F .text	00000104 __s2b
00030aa8 g     F .text	000000a8 .hidden __floatunsidf
000295e8 g     F .text	00000060 __mcmp
00027324 g     F .text	00000018 __fp_lock_all
000325a8 g     F .text	0000004c alt_ic_irq_enabled
00032a78 g     F .text	0000009c alt_alarm_stop
00036d0c g     O .bss	00000004 alt_irq_active
000200fc g     F .exceptions	000000d4 alt_irq_handler
00033fb0 g     O .rwdata	00000028 alt_dev_null
00032250 g     F .text	00000020 alt_dcache_flush_all
00029014 g     F .text	00000068 __hi0bits
0003094c g     F .text	00000080 .hidden __fixdfsi
000351f8 g       *ABS*	00000000 __ram_rwdata_end
000351d8 g     O .rwdata	00000008 alt_dev_list
00031400 g     F .text	000000f8 write
0003370c g       *ABS*	00000000 __ram_rodata_end
00030d28 g     F .text	000000b0 fstat
0002f844 g     F .text	000000f4 .hidden __ledf2
00029360 g     F .text	00000140 __pow5mult
0002ba80 g     F .text	0000145c ___vfiprintf_internal_r
00036cec g     O .bss	00000004 __nlocale_changed
0002e4f4 g     F .text	00000058 .hidden __umodsi3
00036e44 g       *ABS*	00000000 end
0003172c g     F .text	000000c0 altera_avalon_jtag_uart_init
000201d0 g     F .exceptions	00000074 alt_instruction_exception_entry
0003333c g       *ABS*	00000000 __CTOR_LIST__
0003e000 g       *ABS*	00000000 __alt_stack_pointer
000320a8 g     F .text	0000007c alt_avalon_timer_sc_init
00030b50 g     F .text	00000064 .hidden __clzsi2
00031e0c g     F .text	00000224 altera_avalon_jtag_uart_write
00027314 g     F .text	00000004 __sfp_lock_acquire
00028870 g     F .text	000000e4 memchr
00023060 g     F .text	000021f8 ___vfprintf_internal_r
00020d2c g     F .text	00000058 _sprintf_r
00027478 g     F .text	00000310 _free_r
00027e54 g     F .text	00000010 __locale_mb_cur_max
00033188 g     F .text	00000180 __call_exitprocs
00036ce8 g     O .bss	00000004 __mlocale_changed
000351c4 g     O .rwdata	00000004 __malloc_sbrk_base
00020244 g     F .text	0000003c _start
00036d10 g     O .bss	00000004 _alt_tick_rate
000294a0 g     F .text	00000148 __lshift
00036d14 g     O .bss	00000004 _alt_nticks
000311b4 g     F .text	000000fc read
00031564 g     F .text	00000064 alt_sys_init
0002a560 g     F .text	000001d0 __ssprint_r
00033070 g     F .text	00000118 __register_exitproc
00029168 g     F .text	000001f8 __multiply
00031a98 g     F .text	00000068 altera_avalon_jtag_uart_close
0003370c g       *ABS*	00000000 __ram_rwdata_start
0003333c g       *ABS*	00000000 __ram_rodata_start
00036d1c g     O .bss	00000028 __malloc_current_mallinfo
000299b4 g     F .text	0000014c __d2b
000315c8 g     F .text	00000060 altera_avalon_jtag_uart_read_fd
00032dd8 g     F .text	000000a4 alt_get_fd
0002d014 g     F .text	00000054 _close_r
00032ff4 g     F .text	0000007c memcmp
00031688 g     F .text	00000050 altera_avalon_jtag_uart_close_fd
00036e44 g       *ABS*	00000000 __alt_stack_base
000316d8 g     F .text	00000054 altera_avalon_jtag_uart_ioctl_fd
00025330 g     F .text	00000154 __swsetup_r
0002edf8 g     F .text	000008e8 .hidden __divdf3
000271d4 g     F .text	00000118 __sfp
00029c18 g     F .text	00000078 __copybits
0002049c g     F .text	00000270 char27seg
00033ba8 g     O .rwdata	00000408 __malloc_av_
00027320 g     F .text	00000004 __sinit_lock_release
0002f938 g     F .text	00000718 .hidden __muldf3
0002a348 g     F .text	00000054 __sread
00032cd0 g     F .text	00000108 alt_find_file
000322ac g     F .text	000000a4 alt_dev_llist_insert
00031130 g     F .text	00000024 __malloc_lock
00031314 g     F .text	000000b0 sbrk
00020e88 g     F .text	000021d8 ___svfprintf_internal_r
00026f28 g     F .text	0000005c _fflush_r
0002d068 g     F .text	000000c4 _calloc_r
00036ce4 g       *ABS*	00000000 __bss_start
00028bf8 g     F .text	00000128 memset
0002042c g     F .text	00000070 main
00036d08 g     O .bss	00000004 alt_envp
00036cf0 g     O .bss	00000004 __malloc_max_total_mem
00031628 g     F .text	00000060 altera_avalon_jtag_uart_write_fd
0002d6e8 g     F .text	00000018 __swbuf
0002a47c g     F .text	00000008 __sclose
0003e000 g       *ABS*	00000000 __alt_heap_limit
0002d21c g     F .text	00000014 fclose
00025684 g     F .text	00001688 _dtoa_r
00028064 g     F .text	0000080c _malloc_r
0002d85c g     F .text	00000030 __ascii_wctomb
000351e4 g     O .rwdata	00000004 alt_errno
000203e0 g     F .text	0000004c buzzer_disable
0002070c g     F .text	00000324 hex_display
00027c44 g     F .text	000000c4 _fwalk
0002e398 g     F .text	00000084 .hidden __divsi3
00027354 g     F .text	00000124 _malloc_trim_r
0003333c g       *ABS*	00000000 __CTOR_END__
0002a484 g     F .text	000000dc strcmp
0003333c g       *ABS*	00000000 __flash_rodata_start
0003333c g       *ABS*	00000000 __DTOR_LIST__
0002f6e0 g     F .text	00000088 .hidden __nedf2
0003152c g     F .text	00000038 alt_irq_init
000312b0 g     F .text	00000064 alt_release_fd
00020d84 g     F .text	0000006c sprintf
000335d8 g     O .rodata	00000100 .hidden __clz_tab
00036ce4 g     O .bss	00000004 _PathLocale
00032fa8 g     F .text	00000014 atexit
0002cfb4 g     F .text	00000060 _write_r
00027e84 g     F .text	00000018 setlocale
00020000 g       *ABS*	00000000 __alt_mem_MEMOIRE_ONCHIP
000351bc g     O .rwdata	00000004 _impure_ptr
00036d00 g     O .bss	00000004 alt_argc
00026d0c g     F .text	0000021c __sflush_r
000323b0 g     F .text	00000060 _do_dtors
00027e70 g     F .text	00000008 __locale_cjk_lang
00020020 g       .exceptions	00000000 alt_irq_entry
00029844 g     F .text	00000064 __ulp
0002733c g     F .text	00000018 __fp_unlock_all
000351d0 g     O .rwdata	00000008 alt_fs_list
00020020 g       *ABS*	00000000 __ram_exceptions_start
00027e9c g     F .text	0000000c localeconv
0002038c g     F .text	00000054 buzzer_enable
00032444 g     F .text	00000050 alt_ic_isr_register
000351f8 g       *ABS*	00000000 _edata
00020a30 g     F .text	000000c0 time_increment
00036e44 g       *ABS*	00000000 _end
0002d230 g     F .text	00000164 __fputwc
00020244 g       *ABS*	00000000 __ram_exceptions_end
00031b00 g     F .text	000000f0 altera_avalon_jtag_uart_ioctl
0003251c g     F .text	0000008c alt_ic_irq_disable
0002a3a4 g     F .text	0000007c __swrite
000351c8 g     O .rwdata	00000004 __malloc_trim_threshold
00027e64 g     F .text	0000000c __locale_msgcharset
00032fbc g     F .text	00000038 exit
00027d08 g     F .text	000000c4 _fwalk_reent
00029648 g     F .text	000001fc __mdiff
0002e41c g     F .text	00000074 .hidden __modsi3
0003e000 g       *ABS*	00000000 __alt_data_end
00020020 g     F .exceptions	00000000 alt_exception
00027318 g     F .text	00000004 __sfp_lock_release
00033308 g     F .text	00000034 _exit
00032124 g     F .text	0000012c alt_alarm_start
00027ea8 g     F .text	000001bc __smakebuf_r
00020df0 g     F .text	00000098 strlen
00032924 g     F .text	00000154 open
0002f768 g     F .text	000000dc .hidden __gedf2
000351cc g     O .rwdata	00000004 __wctomb
0002ba68 g     F .text	00000018 __sprint_r
00032410 g     F .text	00000034 alt_icache_flush_all
000351ec g     O .rwdata	00000004 alt_priority_mask
00032494 g     F .text	00000088 alt_ic_irq_enable
00025258 g     F .text	0000001c __vfprintf_internal
0002d88c g     F .text	0000005c _wctomb_r
00030050 g     F .text	000008fc .hidden __subdf3
0002907c g     F .text	000000b0 __lo0bits
000351f0 g     O .rwdata	00000008 alt_alarm_list
00032350 g     F .text	00000060 _do_ctors
0002d79c g     F .text	000000c0 wcrtomb
00030bf0 g     F .text	000000d0 close
00030f20 g     F .text	00000084 alt_load
0002d3b8 g     F .text	00000080 fputwc
0002731c g     F .text	00000004 __sinit_lock_acquire
00028df0 g     F .text	00000120 __multadd
00028dc8 g     F .text	00000028 _Bfree



Disassembly of section .entry:

00020000 <__reset>:
#if NIOS2_ICACHE_SIZE > 0 && defined(ALT_ALLOW_CODE_AT_RESET) && (!defined(ALT_SIM_OPTIMIZE) || defined(NIOS2_ECC_PRESENT))
    /* Assume the instruction cache size is always a power of two. */
#if NIOS2_ICACHE_SIZE > 0x8000
    movhi r2, %hi(NIOS2_ICACHE_SIZE)
#else
    movui r2, NIOS2_ICACHE_SIZE
   20000:	00820014 	movui	r2,2048
#endif

0:
    initi r2
   20004:	1001483a 	initi	r2
    addi r2, r2, -NIOS2_ICACHE_LINE_SIZE
   20008:	10bff804 	addi	r2,r2,-32
    bgt r2, zero, 0b
   2000c:	00bffd16 	blt	zero,r2,20004 <__reset+0x4>
 * Jump to the _start entry point in the .text section if reset code
 * is allowed or if optimizing for RTL simulation.
 */
#if defined(ALT_ALLOW_CODE_AT_RESET) || defined(ALT_SIM_OPTIMIZE)
    /* Jump to the _start entry point in the .text section. */
    movhi r1, %hi(_start)
   20010:	004000b4 	movhi	at,2
    ori r1, r1, %lo(_start)
   20014:	08409114 	ori	at,at,580
    jmp r1
   20018:	0800683a 	jmp	at
   2001c:	00000000 	call	0 <__alt_mem_MEMOIRE_ONCHIP-0x20000>

Disassembly of section .exceptions:

00020020 <alt_exception>:

#else /* ALT_EXCEPTION_STACK disabled */
        /* 
         * Reserve space on normal stack for registers about to be pushed.
         */
        addi  sp, sp, -76
   20020:	deffed04 	addi	sp,sp,-76
         * documentation for details).
         *
         * Leave a gap in the stack frame at 4(sp) for the muldiv handler to
         * store zero into.
         */
        stw   ra,  0(sp)
   20024:	dfc00015 	stw	ra,0(sp)
        stw   r1,   8(sp)
   20028:	d8400215 	stw	at,8(sp)
        stw   r2,  12(sp)
   2002c:	d8800315 	stw	r2,12(sp)
        stw   r3,  16(sp)
   20030:	d8c00415 	stw	r3,16(sp)
        stw   r4,  20(sp)
   20034:	d9000515 	stw	r4,20(sp)
        stw   r5,  24(sp)
   20038:	d9400615 	stw	r5,24(sp)
        stw   r6,  28(sp)
   2003c:	d9800715 	stw	r6,28(sp)
        stw   r7,  32(sp)
   20040:	d9c00815 	stw	r7,32(sp)
        rdctl r5, estatus   /* Read early to avoid usage stall */
   20044:	000b307a 	rdctl	r5,estatus
        stw   r8,  36(sp)
   20048:	da000915 	stw	r8,36(sp)
        stw   r9,  40(sp)
   2004c:	da400a15 	stw	r9,40(sp)
        stw   r10, 44(sp)
   20050:	da800b15 	stw	r10,44(sp)
        stw   r11, 48(sp)
   20054:	dac00c15 	stw	r11,48(sp)
        stw   r12, 52(sp)
   20058:	db000d15 	stw	r12,52(sp)
        stw   r13, 56(sp)
   2005c:	db400e15 	stw	r13,56(sp)
        stw   r14, 60(sp)
   20060:	db800f15 	stw	r14,60(sp)
        stw   r15, 64(sp)
   20064:	dbc01015 	stw	r15,64(sp)
        /*
         * ea-4 contains the address of the instruction being executed
         * when the exception occured. For interrupt exceptions, we will
         * will be re-issue the isntruction. Store it in 72(sp)
         */
        stw   r5,  68(sp)  /* estatus */
   20068:	d9401115 	stw	r5,68(sp)
        addi  r15, ea, -4  /* instruction that caused exception */
   2006c:	ebffff04 	addi	r15,ea,-4
        stw   r15,  72(sp)
   20070:	dbc01215 	stw	r15,72(sp)
#else
        /*
         * Test to see if the exception was a software exception or caused 
         * by an external interrupt, and vector accordingly.
         */
        rdctl r4, ipending
   20074:	0009313a 	rdctl	r4,ipending
        andi  r2, r5, 1
   20078:	2880004c 	andi	r2,r5,1
        beq   r2, zero, .Lnot_irq
   2007c:	10000326 	beq	r2,zero,2008c <alt_exception+0x6c>
        beq   r4, zero, .Lnot_irq
   20080:	20000226 	beq	r4,zero,2008c <alt_exception+0x6c>
        /*
         * Now that all necessary registers have been preserved, call 
         * alt_irq_handler() to process the interrupts.
         */

        call alt_irq_handler
   20084:	00200fc0 	call	200fc <alt_irq_handler>

        .section .exceptions.irqreturn, "xa"

        br    .Lexception_exit
   20088:	00000706 	br	200a8 <alt_exception+0x88>
         * upon completion, so we write ea (address of instruction *after*
         * the one where the exception occured) into 72(sp). The actual
         * instruction that caused the exception is written in r2, which these
         * handlers will utilize.
         */
        stw ea, 72(sp) /* EA is PC+4 so will skip over instruction causing exception */
   2008c:	df401215 	stw	ea,72(sp)
.Lunknown_16bit:
        addi.n r4, r4, 2 /* Need PC+2 to skip over instruction causing exception */
        stw r4, 72(sp)

#else /* CDX is not Enabled and all instructions are 32bits */
        ldw r2, -4(ea) /* Instruction value that caused exception */
   20090:	e8bfff17 	ldw	r2,-4(ea)
         * debugger is present) or go into an infinite loop since the
         * handling behavior is undefined; in that case we will not return here.
         */

        /* Load exception-causing address as first argument (r4) */
        addi   r4, ea, -4
   20094:	e93fff04 	addi	r4,ea,-4

        /* Call the instruction-exception entry */
        call   alt_instruction_exception_entry
   20098:	00201d00 	call	201d0 <alt_instruction_exception_entry>
         * instruction
         *
         * Return code was 0: Skip. The instruction after the exception is
         * already stored in 72(sp).
         */
        bne   r2, r0, .Lexception_exit
   2009c:	1000021e 	bne	r2,zero,200a8 <alt_exception+0x88>

        /*
         * Otherwise, modify 72(sp) to re-issue the instruction that caused the
         * exception.
         */
        addi  r15, ea, -4  /* instruction that caused exception */
   200a0:	ebffff04 	addi	r15,ea,-4
        stw   r15,  72(sp)
   200a4:	dbc01215 	stw	r15,72(sp)
        /* 
         * Restore the saved registers, so that all general purpose registers 
         * have been restored to their state at the time the interrupt occured.
         */

        ldw   r5,  68(sp)
   200a8:	d9401117 	ldw	r5,68(sp)
        ldw   ea,  72(sp)  /* This becomes the PC once eret is executed */
   200ac:	df401217 	ldw	ea,72(sp)
        ldw   ra,   0(sp)
   200b0:	dfc00017 	ldw	ra,0(sp)

        wrctl estatus, r5
   200b4:	2801707a 	wrctl	estatus,r5

        ldw   r1,   8(sp)
   200b8:	d8400217 	ldw	at,8(sp)
        ldw   r2,  12(sp)
   200bc:	d8800317 	ldw	r2,12(sp)
        ldw   r3,  16(sp)
   200c0:	d8c00417 	ldw	r3,16(sp)
        ldw   r4,  20(sp)
   200c4:	d9000517 	ldw	r4,20(sp)
        ldw   r5,  24(sp)
   200c8:	d9400617 	ldw	r5,24(sp)
        ldw   r6,  28(sp)
   200cc:	d9800717 	ldw	r6,28(sp)
        ldw   r7,  32(sp)
   200d0:	d9c00817 	ldw	r7,32(sp)

#if defined(ALT_EXCEPTION_STACK) && defined(ALT_STACK_CHECK)
        ldw   et, %gprel(alt_exception_old_stack_limit)(gp)
#endif

        ldw   r8,  36(sp)
   200d4:	da000917 	ldw	r8,36(sp)
        ldw   r9,  40(sp)
   200d8:	da400a17 	ldw	r9,40(sp)
        ldw   r10, 44(sp)
   200dc:	da800b17 	ldw	r10,44(sp)
        ldw   r11, 48(sp)
   200e0:	dac00c17 	ldw	r11,48(sp)
        ldw   r12, 52(sp)
   200e4:	db000d17 	ldw	r12,52(sp)
        ldw   r13, 56(sp)
   200e8:	db400e17 	ldw	r13,56(sp)
        ldw   r14, 60(sp)
   200ec:	db800f17 	ldw	r14,60(sp)
        ldw   r15, 64(sp)
   200f0:	dbc01017 	ldw	r15,64(sp)
        stw   et, %gprel(alt_stack_limit_value)(gp)
        stw   zero, %gprel(alt_exception_old_stack_limit)(gp)
#endif /* ALT_STACK_CHECK */
        ldw   sp,  76(sp)
#else /* ALT_EXCEPTION_STACK disabled */
        addi  sp, sp, 76
   200f4:	dec01304 	addi	sp,sp,76

        /*
         * Return to the interrupted instruction.
         */

        eret
   200f8:	ef80083a 	eret

000200fc <alt_irq_handler>:
 * instruction is present if the macro ALT_CI_INTERRUPT_VECTOR defined.
 */

void alt_irq_handler (void) __attribute__ ((section (".exceptions")));
void alt_irq_handler (void)
{
   200fc:	defff904 	addi	sp,sp,-28
   20100:	dfc00615 	stw	ra,24(sp)
   20104:	df000515 	stw	fp,20(sp)
   20108:	df000504 	addi	fp,sp,20
  
  /*
   * Notify the operating system that we are at interrupt level.
   */ 
  
  ALT_OS_INT_ENTER();
   2010c:	0001883a 	nop
#ifndef NIOS2_EIC_PRESENT
static ALT_INLINE alt_u32 ALT_ALWAYS_INLINE alt_irq_pending (void)
{
  alt_u32 active;

  NIOS2_READ_IPENDING (active);
   20110:	0005313a 	rdctl	r2,ipending
   20114:	e0bffe15 	stw	r2,-8(fp)

  return active;
   20118:	e0bffe17 	ldw	r2,-8(fp)
   * Consider the case where the high priority interupt is asserted during
   * the interrupt entry sequence for a lower priority interrupt to see why
   * this is the case.
   */

  active = alt_irq_pending ();
   2011c:	e0bffb15 	stw	r2,-20(fp)

  do
  {
    i = 0;
   20120:	e03ffd15 	stw	zero,-12(fp)
    mask = 1;
   20124:	00800044 	movi	r2,1
   20128:	e0bffc15 	stw	r2,-16(fp)
     * called to clear the interrupt condition.
     */

    do
    {
      if (active & mask)
   2012c:	e0fffb17 	ldw	r3,-20(fp)
   20130:	e0bffc17 	ldw	r2,-16(fp)
   20134:	1884703a 	and	r2,r3,r2
   20138:	10001426 	beq	r2,zero,2018c <alt_irq_handler+0x90>
      { 
#ifdef ALT_ENHANCED_INTERRUPT_API_PRESENT
        alt_irq[i].handler(alt_irq[i].context); 
   2013c:	008000f4 	movhi	r2,3
   20140:	109b5104 	addi	r2,r2,27972
   20144:	e0fffd17 	ldw	r3,-12(fp)
   20148:	180690fa 	slli	r3,r3,3
   2014c:	10c5883a 	add	r2,r2,r3
   20150:	10c00017 	ldw	r3,0(r2)
   20154:	008000f4 	movhi	r2,3
   20158:	109b5104 	addi	r2,r2,27972
   2015c:	e13ffd17 	ldw	r4,-12(fp)
   20160:	200890fa 	slli	r4,r4,3
   20164:	1105883a 	add	r2,r2,r4
   20168:	10800104 	addi	r2,r2,4
   2016c:	10800017 	ldw	r2,0(r2)
   20170:	1009883a 	mov	r4,r2
   20174:	183ee83a 	callr	r3
#else
        alt_irq[i].handler(alt_irq[i].context, i); 
#endif
        break;
   20178:	0001883a 	nop
#ifndef NIOS2_EIC_PRESENT
static ALT_INLINE alt_u32 ALT_ALWAYS_INLINE alt_irq_pending (void)
{
  alt_u32 active;

  NIOS2_READ_IPENDING (active);
   2017c:	0005313a 	rdctl	r2,ipending
   20180:	e0bfff15 	stw	r2,-4(fp)

  return active;
   20184:	e0bfff17 	ldw	r2,-4(fp)
   20188:	00000706 	br	201a8 <alt_irq_handler+0xac>
      }
      mask <<= 1;
   2018c:	e0bffc17 	ldw	r2,-16(fp)
   20190:	1085883a 	add	r2,r2,r2
   20194:	e0bffc15 	stw	r2,-16(fp)
      i++;
   20198:	e0bffd17 	ldw	r2,-12(fp)
   2019c:	10800044 	addi	r2,r2,1
   201a0:	e0bffd15 	stw	r2,-12(fp)

    } while (1);
   201a4:	003fe106 	br	2012c <alt_irq_handler+0x30>

    active = alt_irq_pending ();
   201a8:	e0bffb15 	stw	r2,-20(fp)
    
  } while (active);
   201ac:	e0bffb17 	ldw	r2,-20(fp)
   201b0:	103fdb1e 	bne	r2,zero,20120 <alt_irq_handler+0x24>

  /*
   * Notify the operating system that interrupt processing is complete.
   */ 

  ALT_OS_INT_EXIT();
   201b4:	0001883a 	nop
}
   201b8:	0001883a 	nop
   201bc:	e037883a 	mov	sp,fp
   201c0:	dfc00117 	ldw	ra,4(sp)
   201c4:	df000017 	ldw	fp,0(sp)
   201c8:	dec00204 	addi	sp,sp,8
   201cc:	f800283a 	ret

000201d0 <alt_instruction_exception_entry>:
 * that handler if it has been registered. Absent a handler, it will
 * break break or hang as discussed below.
 */
int 
alt_instruction_exception_entry (alt_u32 exception_pc)
{
   201d0:	defffb04 	addi	sp,sp,-20
   201d4:	dfc00415 	stw	ra,16(sp)
   201d8:	df000315 	stw	fp,12(sp)
   201dc:	df000304 	addi	fp,sp,12
   201e0:	e13fff15 	stw	r4,-4(fp)
 * NIOS2_EXCEPTION_CAUSE_NOT_PRESENT. Your handling routine should
 * check the validity of the cause argument before proceeding.
 */
#ifdef NIOS2_HAS_EXTRA_EXCEPTION_INFO
  /* Get exception cause & "badaddr" */
  NIOS2_READ_EXCEPTION(cause);
   201e4:	000531fa 	rdctl	r2,exception
   201e8:	e0bffd15 	stw	r2,-12(fp)
  cause = ( (cause & NIOS2_EXCEPTION_REG_CAUSE_MASK) >>
   201ec:	e0bffd17 	ldw	r2,-12(fp)
   201f0:	10801f0c 	andi	r2,r2,124
   201f4:	1004d0ba 	srli	r2,r2,2
   201f8:	e0bffd15 	stw	r2,-12(fp)
              NIOS2_EXCEPTION_REG_CAUSE_OFST );

  NIOS2_READ_BADADDR(badaddr);
   201fc:	0005333a 	rdctl	r2,badaddr
   20200:	e0bffe15 	stw	r2,-8(fp)
#else
  cause = NIOS2_EXCEPTION_CAUSE_NOT_PRESENT;
  badaddr = 0;
#endif /* NIOS2_HAS_EXTRA_EXCEPTION_INFO */

  if(alt_instruction_exception_handler) {
   20204:	d0a6d817 	ldw	r2,-25760(gp)
   20208:	10000726 	beq	r2,zero,20228 <alt_instruction_exception_entry+0x58>
     * Call handler. Its return value indicates whether the exception-causing
     * instruction should be re-issued. The code that called us,
     * alt_eceptions_entry.S, will look at this value and adjust the ea
     * register as necessary
     */
    return alt_instruction_exception_handler(cause, exception_pc, badaddr);
   2020c:	d0a6d817 	ldw	r2,-25760(gp)
   20210:	e0fffd17 	ldw	r3,-12(fp)
   20214:	e1bffe17 	ldw	r6,-8(fp)
   20218:	e17fff17 	ldw	r5,-4(fp)
   2021c:	1809883a 	mov	r4,r3
   20220:	103ee83a 	callr	r2
   20224:	00000206 	br	20230 <alt_instruction_exception_entry+0x60>
   *    (a peripheral which negates its interrupt output before its
   *    interrupt handler has been executed will cause spurious interrupts)
   */
  else {
#ifdef NIOS2_HAS_DEBUG_STUB
    NIOS2_BREAK();
   20228:	003da03a 	break	0
      ;
#endif /* NIOS2_HAS_DEBUG_STUB */
  }

  /* We should not get here. Remove compiler warning. */
  return NIOS2_EXCEPTION_RETURN_REISSUE_INST;
   2022c:	0005883a 	mov	r2,zero
}
   20230:	e037883a 	mov	sp,fp
   20234:	dfc00117 	ldw	ra,4(sp)
   20238:	df000017 	ldw	fp,0(sp)
   2023c:	dec00204 	addi	sp,sp,8
   20240:	f800283a 	ret

Disassembly of section .text:

00020244 <_start>:

    /*
     * Now that the caches are initialized, set up the stack pointer and global pointer.
     * The values provided by the linker are assumed to be correctly aligned.
     */
    movhi sp, %hi(__alt_stack_pointer)
   20244:	06c000f4 	movhi	sp,3
    ori sp, sp, %lo(__alt_stack_pointer)
   20248:	def80014 	ori	sp,sp,57344
    movhi gp, %hi(_gp)
   2024c:	068000f4 	movhi	gp,3
    ori gp, gp, %lo(_gp)
   20250:	d6b46e14 	ori	gp,gp,53688
 */
#ifndef ALT_SIM_OPTIMIZE
    /* Log that the BSS is about to be cleared. */
    ALT_LOG_PUTS(alt_log_msg_bss)

    movhi r2, %hi(__bss_start)
   20254:	008000f4 	movhi	r2,3
    ori r2, r2, %lo(__bss_start)
   20258:	109b3914 	ori	r2,r2,27876

    movhi r3, %hi(__bss_end)
   2025c:	00c000f4 	movhi	r3,3
    ori r3, r3, %lo(__bss_end)
   20260:	18db9114 	ori	r3,r3,28228

    beq r2, r3, 1f
   20264:	10c00326 	beq	r2,r3,20274 <_start+0x30>

0:
    stw zero, (r2)
   20268:	10000015 	stw	zero,0(r2)
    addi r2, r2, 4
   2026c:	10800104 	addi	r2,r2,4
    bltu r2, r3, 0b
   20270:	10fffd36 	bltu	r2,r3,20268 <_start+0x24>
     * section aren't defined until alt_load() has been called).
     */
    mov   et, zero
#endif

    call alt_load
   20274:	0030f200 	call	30f20 <alt_load>

    /* Log that alt_main is about to be called. */
    ALT_LOG_PUTS(alt_log_msg_alt_main)

    /* Call the C entry point. It should never return. */
    call alt_main
   20278:	00310b40 	call	310b4 <alt_main>

0002027c <alt_after_alt_main>:

    /* Wait in infinite loop in case alt_main does return. */
alt_after_alt_main:
    br alt_after_alt_main
   2027c:	003fff06 	br	2027c <alt_after_alt_main>

00020280 <buzzer_set_note>:
 *	FUNCTIONS
 *  =======================================================================
 */

int buzzer_set_note(enum note freq)
{
   20280:	defffc04 	addi	sp,sp,-16
   20284:	df000315 	stw	fp,12(sp)
   20288:	df000304 	addi	fp,sp,12
   2028c:	e13fff15 	stw	r4,-4(fp)
	// Set the 8 LSB
	uint32_t tmp_reg = PWM_IORD_ODATA;
   20290:	00800134 	movhi	r2,4
   20294:	10841c04 	addi	r2,r2,4208
   20298:	10800037 	ldwio	r2,0(r2)
   2029c:	e0bffd15 	stw	r2,-12(fp)
	uint8_t tmp_val = freq & 0xFF;
   202a0:	e0bfff17 	ldw	r2,-4(fp)
   202a4:	e0bffe05 	stb	r2,-8(fp)

	// Bit masking to configure the 8 LSBS.
	tmp_reg &= 0xFFFFFF00;
   202a8:	e0fffd17 	ldw	r3,-12(fp)
   202ac:	00bfc004 	movi	r2,-256
   202b0:	1884703a 	and	r2,r3,r2
   202b4:	e0bffd15 	stw	r2,-12(fp)
	tmp_reg |= tmp_val;
   202b8:	e0bffe03 	ldbu	r2,-8(fp)
   202bc:	e0fffd17 	ldw	r3,-12(fp)
   202c0:	1884b03a 	or	r2,r3,r2
   202c4:	e0bffd15 	stw	r2,-12(fp)

	// Write
	PWM_IOWR_DATA(tmp_reg);
   202c8:	e0fffd17 	ldw	r3,-12(fp)
   202cc:	00800134 	movhi	r2,4
   202d0:	10841c04 	addi	r2,r2,4208
   202d4:	10c00035 	stwio	r3,0(r2)

	return 0;
   202d8:	0005883a 	mov	r2,zero
}
   202dc:	e037883a 	mov	sp,fp
   202e0:	df000017 	ldw	fp,0(sp)
   202e4:	dec00104 	addi	sp,sp,4
   202e8:	f800283a 	ret

000202ec <buzzer_set_volume>:

int buzzer_set_volume(int volume)
{
   202ec:	defffc04 	addi	sp,sp,-16
   202f0:	df000315 	stw	fp,12(sp)
   202f4:	df000304 	addi	fp,sp,12
   202f8:	e13fff15 	stw	r4,-4(fp)
	if ((volume > 255) | (volume < 0))
   202fc:	e0bfff17 	ldw	r2,-4(fp)
   20300:	10804008 	cmpgei	r2,r2,256
   20304:	1007883a 	mov	r3,r2
   20308:	e0bfff17 	ldw	r2,-4(fp)
   2030c:	1004d7fa 	srli	r2,r2,31
   20310:	1884b03a 	or	r2,r3,r2
   20314:	10803fcc 	andi	r2,r2,255
   20318:	10000226 	beq	r2,zero,20324 <buzzer_set_volume+0x38>
	{
		return -1;
   2031c:	00bfffc4 	movi	r2,-1
   20320:	00001606 	br	2037c <buzzer_set_volume+0x90>
	}

	// Set the 16-8 LSB
	uint32_t tmp_reg = PWM_IORD_ODATA;
   20324:	00800134 	movhi	r2,4
   20328:	10841c04 	addi	r2,r2,4208
   2032c:	10800037 	ldwio	r2,0(r2)
   20330:	e0bffd15 	stw	r2,-12(fp)
	uint8_t tmp_val = volume & 0xFF;
   20334:	e0bfff17 	ldw	r2,-4(fp)
   20338:	e0bffe05 	stb	r2,-8(fp)

	// Bit masking to configure the 16-8 LSBS.
	tmp_reg &= 0xFFFF00FF;
   2033c:	e0fffd17 	ldw	r3,-12(fp)
   20340:	00bffff4 	movhi	r2,65535
   20344:	10803fc4 	addi	r2,r2,255
   20348:	1884703a 	and	r2,r3,r2
   2034c:	e0bffd15 	stw	r2,-12(fp)
	tmp_reg |= (tmp_val << 8);
   20350:	e0bffe03 	ldbu	r2,-8(fp)
   20354:	1004923a 	slli	r2,r2,8
   20358:	1007883a 	mov	r3,r2
   2035c:	e0bffd17 	ldw	r2,-12(fp)
   20360:	10c4b03a 	or	r2,r2,r3
   20364:	e0bffd15 	stw	r2,-12(fp)

	// Write
	PWM_IOWR_DATA(tmp_reg);
   20368:	e0fffd17 	ldw	r3,-12(fp)
   2036c:	00800134 	movhi	r2,4
   20370:	10841c04 	addi	r2,r2,4208
   20374:	10c00035 	stwio	r3,0(r2)

	return 0;
   20378:	0005883a 	mov	r2,zero
}
   2037c:	e037883a 	mov	sp,fp
   20380:	df000017 	ldw	fp,0(sp)
   20384:	dec00104 	addi	sp,sp,4
   20388:	f800283a 	ret

0002038c <buzzer_enable>:

int buzzer_enable()
{
   2038c:	defffe04 	addi	sp,sp,-8
   20390:	df000115 	stw	fp,4(sp)
   20394:	df000104 	addi	fp,sp,4
	// Set the bit 31 to 0 to enable
	uint32_t tmp_reg = PWM_IORD_ODATA;
   20398:	00800134 	movhi	r2,4
   2039c:	10841c04 	addi	r2,r2,4208
   203a0:	10800037 	ldwio	r2,0(r2)
   203a4:	e0bfff15 	stw	r2,-4(fp)
	tmp_reg &= 0x7FFFFFFF;
   203a8:	e0ffff17 	ldw	r3,-4(fp)
   203ac:	00a00034 	movhi	r2,32768
   203b0:	10bfffc4 	addi	r2,r2,-1
   203b4:	1884703a 	and	r2,r3,r2
   203b8:	e0bfff15 	stw	r2,-4(fp)
	PWM_IOWR_DATA(tmp_reg);
   203bc:	e0ffff17 	ldw	r3,-4(fp)
   203c0:	00800134 	movhi	r2,4
   203c4:	10841c04 	addi	r2,r2,4208
   203c8:	10c00035 	stwio	r3,0(r2)

	return 0;
   203cc:	0005883a 	mov	r2,zero
}
   203d0:	e037883a 	mov	sp,fp
   203d4:	df000017 	ldw	fp,0(sp)
   203d8:	dec00104 	addi	sp,sp,4
   203dc:	f800283a 	ret

000203e0 <buzzer_disable>:

int buzzer_disable()
{
   203e0:	defffe04 	addi	sp,sp,-8
   203e4:	df000115 	stw	fp,4(sp)
   203e8:	df000104 	addi	fp,sp,4
	// Set the bit 31 to 1 to disable
	uint32_t tmp_reg = PWM_IORD_ODATA;
   203ec:	00800134 	movhi	r2,4
   203f0:	10841c04 	addi	r2,r2,4208
   203f4:	10800037 	ldwio	r2,0(r2)
   203f8:	e0bfff15 	stw	r2,-4(fp)
	tmp_reg |= 0x80000000;
   203fc:	e0bfff17 	ldw	r2,-4(fp)
   20400:	10a00034 	orhi	r2,r2,32768
   20404:	e0bfff15 	stw	r2,-4(fp)
	PWM_IOWR_DATA(tmp_reg);
   20408:	e0ffff17 	ldw	r3,-4(fp)
   2040c:	00800134 	movhi	r2,4
   20410:	10841c04 	addi	r2,r2,4208
   20414:	10c00035 	stwio	r3,0(r2)

	return 0;
   20418:	0005883a 	mov	r2,zero
}
   2041c:	e037883a 	mov	sp,fp
   20420:	df000017 	ldw	fp,0(sp)
   20424:	dec00104 	addi	sp,sp,4
   20428:	f800283a 	ret

0002042c <main>:
#include "alias.h"
#include "buzzer/buzzer.h"
#include "buzzer/note.h"

int main()
{
   2042c:	defffd04 	addi	sp,sp,-12
   20430:	dfc00215 	stw	ra,8(sp)
   20434:	df000115 	stw	fp,4(sp)
   20438:	df000104 	addi	fp,sp,4
  printf("Hello from Nios II!\n");
   2043c:	010000f4 	movhi	r4,3
   20440:	210ccf04 	addi	r4,r4,13116
   20444:	0020d180 	call	20d18 <puts>

  buzzer_enable();
   20448:	002038c0 	call	2038c <buzzer_enable>
  buzzer_set_volume(255);
   2044c:	01003fc4 	movi	r4,255
   20450:	00202ec0 	call	202ec <buzzer_set_volume>
  buzzer_set_note(La3);
   20454:	01000884 	movi	r4,34
   20458:	00202800 	call	20280 <buzzer_set_note>

  int tmp = hex_display("abcdef", 6, 0);
   2045c:	000d883a 	mov	r6,zero
   20460:	01400184 	movi	r5,6
   20464:	010000f4 	movhi	r4,3
   20468:	210cd404 	addi	r4,r4,13136
   2046c:	002070c0 	call	2070c <hex_display>
   20470:	e0bfff15 	stw	r2,-4(fp)
  printf("Func retavl %d", tmp);
   20474:	e17fff17 	ldw	r5,-4(fp)
   20478:	010000f4 	movhi	r4,3
   2047c:	210cd604 	addi	r4,r4,13144
   20480:	0020c1c0 	call	20c1c <printf>

  return 0;
   20484:	0005883a 	mov	r2,zero
}
   20488:	e037883a 	mov	sp,fp
   2048c:	dfc00117 	ldw	ra,4(sp)
   20490:	df000017 	ldw	fp,0(sp)
   20494:	dec00204 	addi	sp,sp,8
   20498:	f800283a 	ret

0002049c <char27seg>:
 *  =======================================================================
 */

// Local function to convert from one base to the other !
int char27seg(char in, int * val)
{
   2049c:	defffd04 	addi	sp,sp,-12
   204a0:	df000215 	stw	fp,8(sp)
   204a4:	df000204 	addi	fp,sp,8
   204a8:	2005883a 	mov	r2,r4
   204ac:	e17fff15 	stw	r5,-4(fp)
   204b0:	e0bffe05 	stb	r2,-8(fp)
	*val = 0; // Clear the value
   204b4:	e0bfff17 	ldw	r2,-4(fp)
   204b8:	10000015 	stw	zero,0(r2)

	switch (in)
   204bc:	e0bffe07 	ldb	r2,-8(fp)
   204c0:	10bff4c4 	addi	r2,r2,-45
   204c4:	10c01268 	cmpgeui	r3,r2,73
   204c8:	1800891e 	bne	r3,zero,206f0 <char27seg+0x254>
   204cc:	100690ba 	slli	r3,r2,2
   204d0:	008000b4 	movhi	r2,2
   204d4:	10813904 	addi	r2,r2,1252
   204d8:	1885883a 	add	r2,r3,r2
   204dc:	10800017 	ldw	r2,0(r2)
   204e0:	1000683a 	jmp	r2
   204e4:	000206c0 	call	206c <__alt_mem_MEMOIRE_ONCHIP-0x1df94>
   204e8:	000206c0 	call	206c <__alt_mem_MEMOIRE_ONCHIP-0x1df94>
   204ec:	000206f0 	cmpltui	zero,zero,2075
   204f0:	00020608 	cmpgei	zero,zero,2072
   204f4:	00020608 	cmpgei	zero,zero,2072
   204f8:	00020608 	cmpgei	zero,zero,2072
   204fc:	00020608 	cmpgei	zero,zero,2072
   20500:	00020608 	cmpgei	zero,zero,2072
   20504:	00020608 	cmpgei	zero,zero,2072
   20508:	00020608 	cmpgei	zero,zero,2072
   2050c:	00020608 	cmpgei	zero,zero,2072
   20510:	00020608 	cmpgei	zero,zero,2072
   20514:	00020608 	cmpgei	zero,zero,2072
   20518:	000206f0 	cmpltui	zero,zero,2075
   2051c:	000206f0 	cmpltui	zero,zero,2075
   20520:	000206f0 	cmpltui	zero,zero,2075
   20524:	000206f0 	cmpltui	zero,zero,2075
   20528:	000206f0 	cmpltui	zero,zero,2075
   2052c:	000206f0 	cmpltui	zero,zero,2075
   20530:	000206f0 	cmpltui	zero,zero,2075
   20534:	000206f0 	cmpltui	zero,zero,2075
   20538:	000206f0 	cmpltui	zero,zero,2075
   2053c:	000206f0 	cmpltui	zero,zero,2075
   20540:	000206f0 	cmpltui	zero,zero,2075
   20544:	000206f0 	cmpltui	zero,zero,2075
   20548:	000206f0 	cmpltui	zero,zero,2075
   2054c:	000206f0 	cmpltui	zero,zero,2075
   20550:	000206f0 	cmpltui	zero,zero,2075
   20554:	000206f0 	cmpltui	zero,zero,2075
   20558:	000206f0 	cmpltui	zero,zero,2075
   2055c:	000206f0 	cmpltui	zero,zero,2075
   20560:	000206f0 	cmpltui	zero,zero,2075
   20564:	000206f0 	cmpltui	zero,zero,2075
   20568:	000206f0 	cmpltui	zero,zero,2075
   2056c:	000206f0 	cmpltui	zero,zero,2075
   20570:	000206f0 	cmpltui	zero,zero,2075
   20574:	000206f0 	cmpltui	zero,zero,2075
   20578:	000206f0 	cmpltui	zero,zero,2075
   2057c:	000206f0 	cmpltui	zero,zero,2075
   20580:	000206f0 	cmpltui	zero,zero,2075
   20584:	000206f0 	cmpltui	zero,zero,2075
   20588:	000206f0 	cmpltui	zero,zero,2075
   2058c:	000206f0 	cmpltui	zero,zero,2075
   20590:	000206f0 	cmpltui	zero,zero,2075
   20594:	000206f0 	cmpltui	zero,zero,2075
   20598:	000206f0 	cmpltui	zero,zero,2075
   2059c:	000206f0 	cmpltui	zero,zero,2075
   205a0:	000206f0 	cmpltui	zero,zero,2075
   205a4:	000206f0 	cmpltui	zero,zero,2075
   205a8:	000206f0 	cmpltui	zero,zero,2075
   205ac:	000206f0 	cmpltui	zero,zero,2075
   205b0:	000206f0 	cmpltui	zero,zero,2075
   205b4:	00020638 	rdprs	zero,zero,2072
   205b8:	00020638 	rdprs	zero,zero,2072
   205bc:	00020638 	rdprs	zero,zero,2072
   205c0:	00020638 	rdprs	zero,zero,2072
   205c4:	00020638 	rdprs	zero,zero,2072
   205c8:	00020638 	rdprs	zero,zero,2072
   205cc:	000206f0 	cmpltui	zero,zero,2075
   205d0:	00020668 	cmpgeui	zero,zero,2073
   205d4:	00020668 	cmpgeui	zero,zero,2073
   205d8:	000206f0 	cmpltui	zero,zero,2075
   205dc:	000206f0 	cmpltui	zero,zero,2075
   205e0:	000206f0 	cmpltui	zero,zero,2075
   205e4:	000206f0 	cmpltui	zero,zero,2075
   205e8:	000206f0 	cmpltui	zero,zero,2075
   205ec:	00020698 	cmpnei	zero,zero,2074
   205f0:	000206f0 	cmpltui	zero,zero,2075
   205f4:	000206f0 	cmpltui	zero,zero,2075
   205f8:	000206f0 	cmpltui	zero,zero,2075
   205fc:	000206f0 	cmpltui	zero,zero,2075
   20600:	000206f0 	cmpltui	zero,zero,2075
   20604:	000206ac 	andhi	zero,zero,2074
	case '5':
	case '6':
	case '7':
	case '8':
	case '9':
		*val = chars[(in - 0x30) + 0];
   20608:	e0bffe07 	ldb	r2,-8(fp)
   2060c:	10fff404 	addi	r3,r2,-48
   20610:	008000f4 	movhi	r2,3
   20614:	108cda04 	addi	r2,r2,13160
   20618:	18c7883a 	add	r3,r3,r3
   2061c:	18c7883a 	add	r3,r3,r3
   20620:	10c5883a 	add	r2,r2,r3
   20624:	10c00017 	ldw	r3,0(r2)
   20628:	e0bfff17 	ldw	r2,-4(fp)
   2062c:	10c00015 	stw	r3,0(r2)
		return 0;
   20630:	0005883a 	mov	r2,zero
   20634:	00003106 	br	206fc <char27seg+0x260>
	case 'b':
	case 'c':
	case 'd':
	case 'e':
	case 'f':
		*val = chars[(in - 0x61) + 10];
   20638:	e0bffe07 	ldb	r2,-8(fp)
   2063c:	10ffea44 	addi	r3,r2,-87
   20640:	008000f4 	movhi	r2,3
   20644:	108cda04 	addi	r2,r2,13160
   20648:	18c7883a 	add	r3,r3,r3
   2064c:	18c7883a 	add	r3,r3,r3
   20650:	10c5883a 	add	r2,r2,r3
   20654:	10c00017 	ldw	r3,0(r2)
   20658:	e0bfff17 	ldw	r2,-4(fp)
   2065c:	10c00015 	stw	r3,0(r2)
		return 0;
   20660:	0005883a 	mov	r2,zero
   20664:	00002506 	br	206fc <char27seg+0x260>
		break;

	// Handling another group of letters
	case 'h':
	case 'i':
		*val = chars[(in - 0x68) + 16];
   20668:	e0bffe07 	ldb	r2,-8(fp)
   2066c:	10ffea04 	addi	r3,r2,-88
   20670:	008000f4 	movhi	r2,3
   20674:	108cda04 	addi	r2,r2,13160
   20678:	18c7883a 	add	r3,r3,r3
   2067c:	18c7883a 	add	r3,r3,r3
   20680:	10c5883a 	add	r2,r2,r3
   20684:	10c00017 	ldw	r3,0(r2)
   20688:	e0bfff17 	ldw	r2,-4(fp)
   2068c:	10c00015 	stw	r3,0(r2)
		return 0;
   20690:	0005883a 	mov	r2,zero
   20694:	00001906 	br	206fc <char27seg+0x260>
		break;

	// Last chars...
	case 'o':
		*val = chars[18];
   20698:	00c028c4 	movi	r3,163
   2069c:	e0bfff17 	ldw	r2,-4(fp)
   206a0:	10c00015 	stw	r3,0(r2)
		return 0;
   206a4:	0005883a 	mov	r2,zero
   206a8:	00001406 	br	206fc <char27seg+0x260>
		break;

	case 'u':
		*val = chars[19];
   206ac:	00c038c4 	movi	r3,227
   206b0:	e0bfff17 	ldw	r2,-4(fp)
   206b4:	10c00015 	stw	r3,0(r2)
		return 0;
   206b8:	0005883a 	mov	r2,zero
   206bc:	00000f06 	br	206fc <char27seg+0x260>
		break;

	// Handling two special chars
	case '-':
	case '.':
		*val = chars[(in - 0x2D) + 20];
   206c0:	e0bffe07 	ldb	r2,-8(fp)
   206c4:	10fff9c4 	addi	r3,r2,-25
   206c8:	008000f4 	movhi	r2,3
   206cc:	108cda04 	addi	r2,r2,13160
   206d0:	18c7883a 	add	r3,r3,r3
   206d4:	18c7883a 	add	r3,r3,r3
   206d8:	10c5883a 	add	r2,r2,r3
   206dc:	10c00017 	ldw	r3,0(r2)
   206e0:	e0bfff17 	ldw	r2,-4(fp)
   206e4:	10c00015 	stw	r3,0(r2)
		return 0;
   206e8:	0005883a 	mov	r2,zero
   206ec:	00000306 	br	206fc <char27seg+0x260>
		break;

	default:
		*val = 0b00000000; // ALL
   206f0:	e0bfff17 	ldw	r2,-4(fp)
   206f4:	10000015 	stw	zero,0(r2)
		return -1;
   206f8:	00bfffc4 	movi	r2,-1
	}

	return -1;
}
   206fc:	e037883a 	mov	sp,fp
   20700:	df000017 	ldw	fp,0(sp)
   20704:	dec00104 	addi	sp,sp,4
   20708:	f800283a 	ret

0002070c <hex_display>:

int hex_display(char* values, int len, int first)
{
   2070c:	deffeb04 	addi	sp,sp,-84
   20710:	dfc01415 	stw	ra,80(sp)
   20714:	df001315 	stw	fp,76(sp)
   20718:	dcc01215 	stw	r19,72(sp)
   2071c:	dc801115 	stw	r18,68(sp)
   20720:	dc401015 	stw	r17,64(sp)
   20724:	dc000f15 	stw	r16,60(sp)
   20728:	df001304 	addi	fp,sp,76
   2072c:	e13ff915 	stw	r4,-28(fp)
   20730:	e17ffa15 	stw	r5,-24(fp)
   20734:	e1bffb15 	stw	r6,-20(fp)
	// First, ensure the operation is possible
	if ((first + len) > HEX_NB)
   20738:	e17ffb17 	ldw	r5,-20(fp)
   2073c:	e13ffa17 	ldw	r4,-24(fp)
   20740:	2909883a 	add	r4,r5,r4
   20744:	210001d0 	cmplti	r4,r4,7
   20748:	2000021e 	bne	r4,zero,20754 <hex_display+0x48>
	{
		return -1;
   2074c:	00bfffc4 	movi	r2,-1
   20750:	0000ae06 	br	20a0c <hex_display+0x300>
	}
	if (len > HEX_NB)
   20754:	e13ffa17 	ldw	r4,-24(fp)
   20758:	210001d0 	cmplti	r4,r4,7
   2075c:	2000021e 	bne	r4,zero,20768 <hex_display+0x5c>
	{
		return -1;
   20760:	00bfffc4 	movi	r2,-1
   20764:	0000a906 	br	20a0c <hex_display+0x300>
	}
	if ((first > HEX_NB - 1) | (first < 0))
   20768:	e13ffb17 	ldw	r4,-20(fp)
   2076c:	21000188 	cmpgei	r4,r4,6
   20770:	200b883a 	mov	r5,r4
   20774:	e13ffb17 	ldw	r4,-20(fp)
   20778:	2008d7fa 	srli	r4,r4,31
   2077c:	2908b03a 	or	r4,r5,r4
   20780:	21003fcc 	andi	r4,r4,255
   20784:	20000226 	beq	r4,zero,20790 <hex_display+0x84>
	{
		return -1;
   20788:	00bfffc4 	movi	r2,-1
   2078c:	00009f06 	br	20a0c <hex_display+0x300>
	}

	// Copy the data
	char buf[] = {'\0', '\0', '\0', '\0', '\0', '\0'};
   20790:	e03ff605 	stb	zero,-40(fp)
   20794:	e03ff645 	stb	zero,-39(fp)
   20798:	e03ff685 	stb	zero,-38(fp)
   2079c:	e03ff6c5 	stb	zero,-37(fp)
   207a0:	e03ff705 	stb	zero,-36(fp)
   207a4:	e03ff745 	stb	zero,-35(fp)
	for (int k = first; k < first + len; k++)
   207a8:	e13ffb17 	ldw	r4,-20(fp)
   207ac:	e13fed15 	stw	r4,-76(fp)
   207b0:	00000e06 	br	207ec <hex_display+0xe0>
	{
		buf[k] = values[k - first];
   207b4:	e17fed17 	ldw	r5,-76(fp)
   207b8:	e13ffb17 	ldw	r4,-20(fp)
   207bc:	2909c83a 	sub	r4,r5,r4
   207c0:	200b883a 	mov	r5,r4
   207c4:	e13ff917 	ldw	r4,-28(fp)
   207c8:	2149883a 	add	r4,r4,r5
   207cc:	21400003 	ldbu	r5,0(r4)
   207d0:	e1bff604 	addi	r6,fp,-40
   207d4:	e13fed17 	ldw	r4,-76(fp)
   207d8:	3109883a 	add	r4,r6,r4
   207dc:	21400005 	stb	r5,0(r4)
		return -1;
	}

	// Copy the data
	char buf[] = {'\0', '\0', '\0', '\0', '\0', '\0'};
	for (int k = first; k < first + len; k++)
   207e0:	e13fed17 	ldw	r4,-76(fp)
   207e4:	21000044 	addi	r4,r4,1
   207e8:	e13fed15 	stw	r4,-76(fp)
   207ec:	e17ffb17 	ldw	r5,-20(fp)
   207f0:	e13ffa17 	ldw	r4,-24(fp)
   207f4:	2909883a 	add	r4,r5,r4
   207f8:	e17fed17 	ldw	r5,-76(fp)
   207fc:	293fed16 	blt	r5,r4,207b4 <hex_display+0xa8>
	{
		buf[k] = values[k - first];
	}

	// Temp variables
	int tmp = 0;
   20800:	e03ff815 	stw	zero,-32(fp)
	int err = 0;
   20804:	e03fee15 	stw	zero,-72(fp)

	// 64 bits variable that represent the whole port
	uint64_t bits = 0;
   20808:	e03fef15 	stw	zero,-68(fp)
   2080c:	e03ff015 	stw	zero,-64(fp)
	uint64_t mask = 0;
   20810:	e03ff115 	stw	zero,-60(fp)
   20814:	e03ff215 	stw	zero,-56(fp)
	uint64_t actual = ((uint64_t)HEX2_IORD_DATA << 32) | (uint64_t)HEX_IORD_DATA;
   20818:	01000134 	movhi	r4,4
   2081c:	21042004 	addi	r4,r4,4224
   20820:	21000037 	ldwio	r4,0(r4)
   20824:	2013883a 	mov	r9,r4
   20828:	2009d7fa 	srai	r4,r4,31
   2082c:	2015883a 	mov	r10,r4
   20830:	4806983a 	sll	r3,r9,zero
   20834:	0005883a 	mov	r2,zero
   20838:	01000134 	movhi	r4,4
   2083c:	21042404 	addi	r4,r4,4240
   20840:	21000037 	ldwio	r4,0(r4)
   20844:	200f883a 	mov	r7,r4
   20848:	2009d7fa 	srai	r4,r4,31
   2084c:	2011883a 	mov	r8,r4
   20850:	11c8b03a 	or	r4,r2,r7
   20854:	e13ff415 	stw	r4,-48(fp)
   20858:	1a04b03a 	or	r2,r3,r8
   2085c:	e0bff515 	stw	r2,-44(fp)

	for (int k = 0; k < HEX_NB; k++)
   20860:	e03ff315 	stw	zero,-52(fp)
   20864:	00003c06 	br	20958 <hex_display+0x24c>
	{
		// Get the associated char (and return if a char is not handled !)
		if (char27seg(buf[k], &tmp) < 0)
   20868:	e0fff604 	addi	r3,fp,-40
   2086c:	e0bff317 	ldw	r2,-52(fp)
   20870:	1885883a 	add	r2,r3,r2
   20874:	10800003 	ldbu	r2,0(r2)
   20878:	10803fcc 	andi	r2,r2,255
   2087c:	1080201c 	xori	r2,r2,128
   20880:	10bfe004 	addi	r2,r2,-128
   20884:	e0fff804 	addi	r3,fp,-32
   20888:	180b883a 	mov	r5,r3
   2088c:	1009883a 	mov	r4,r2
   20890:	002049c0 	call	2049c <char27seg>
   20894:	1000030e 	bge	r2,zero,208a4 <hex_display+0x198>
		{
			err += 1;
   20898:	e0bfee17 	ldw	r2,-72(fp)
   2089c:	10800044 	addi	r2,r2,1
   208a0:	e0bfee15 	stw	r2,-72(fp)
		}

		// Clear the bits to write and write
		bits = bits << 8;
   208a4:	e0bfef17 	ldw	r2,-68(fp)
   208a8:	1004d63a 	srli	r2,r2,24
   208ac:	e0fff017 	ldw	r3,-64(fp)
   208b0:	1806923a 	slli	r3,r3,8
   208b4:	1884b03a 	or	r2,r3,r2
   208b8:	e0bff015 	stw	r2,-64(fp)
   208bc:	e0bfef17 	ldw	r2,-68(fp)
   208c0:	1004923a 	slli	r2,r2,8
   208c4:	e0bfef15 	stw	r2,-68(fp)
		mask = mask << 8;
   208c8:	e0bff117 	ldw	r2,-60(fp)
   208cc:	1004d63a 	srli	r2,r2,24
   208d0:	e0fff217 	ldw	r3,-56(fp)
   208d4:	1806923a 	slli	r3,r3,8
   208d8:	1884b03a 	or	r2,r3,r2
   208dc:	e0bff215 	stw	r2,-56(fp)
   208e0:	e0bff117 	ldw	r2,-60(fp)
   208e4:	1004923a 	slli	r2,r2,8
   208e8:	e0bff115 	stw	r2,-60(fp)

		bits |= tmp;
   208ec:	e0bff817 	ldw	r2,-32(fp)
   208f0:	1021883a 	mov	r16,r2
   208f4:	1005d7fa 	srai	r2,r2,31
   208f8:	1023883a 	mov	r17,r2
   208fc:	e0bfef17 	ldw	r2,-68(fp)
   20900:	1404b03a 	or	r2,r2,r16
   20904:	e0bfef15 	stw	r2,-68(fp)
   20908:	e0bff017 	ldw	r2,-64(fp)
   2090c:	1444b03a 	or	r2,r2,r17
   20910:	e0bff015 	stw	r2,-64(fp)

		if (buf[k] == 0x00)
   20914:	e0fff604 	addi	r3,fp,-40
   20918:	e0bff317 	ldw	r2,-52(fp)
   2091c:	1885883a 	add	r2,r3,r2
   20920:	10800003 	ldbu	r2,0(r2)
   20924:	10803fcc 	andi	r2,r2,255
   20928:	1080201c 	xori	r2,r2,128
   2092c:	10bfe004 	addi	r2,r2,-128
   20930:	1000061e 	bne	r2,zero,2094c <hex_display+0x240>
		{
			mask |= 0xFF;
   20934:	e0bff117 	ldw	r2,-60(fp)
   20938:	10803fd4 	ori	r2,r2,255
   2093c:	e0bff115 	stw	r2,-60(fp)
   20940:	e0bff217 	ldw	r2,-56(fp)
   20944:	1004b03a 	or	r2,r2,zero
   20948:	e0bff215 	stw	r2,-56(fp)
	// 64 bits variable that represent the whole port
	uint64_t bits = 0;
	uint64_t mask = 0;
	uint64_t actual = ((uint64_t)HEX2_IORD_DATA << 32) | (uint64_t)HEX_IORD_DATA;

	for (int k = 0; k < HEX_NB; k++)
   2094c:	e0bff317 	ldw	r2,-52(fp)
   20950:	10800044 	addi	r2,r2,1
   20954:	e0bff315 	stw	r2,-52(fp)
   20958:	e0bff317 	ldw	r2,-52(fp)
   2095c:	10800190 	cmplti	r2,r2,6
   20960:	103fc11e 	bne	r2,zero,20868 <hex_display+0x15c>
			mask |= 0xFF;
		}
	}

	// Clearing the needed bits (mask contain 0 where char are)
	actual &= mask;
   20964:	e0fff417 	ldw	r3,-48(fp)
   20968:	e0bff117 	ldw	r2,-60(fp)
   2096c:	1884703a 	and	r2,r3,r2
   20970:	e0bff415 	stw	r2,-48(fp)
   20974:	e0fff517 	ldw	r3,-44(fp)
   20978:	e0bff217 	ldw	r2,-56(fp)
   2097c:	1884703a 	and	r2,r3,r2
   20980:	e0bff515 	stw	r2,-44(fp)

	// Inverting the mask and getting the masked bits (mask contain 1 where char are)
	mask = ~mask;
   20984:	e0bff117 	ldw	r2,-60(fp)
   20988:	0084303a 	nor	r2,zero,r2
   2098c:	e0bff115 	stw	r2,-60(fp)
   20990:	e0bff217 	ldw	r2,-56(fp)
   20994:	0084303a 	nor	r2,zero,r2
   20998:	e0bff215 	stw	r2,-56(fp)
	bits &= mask;
   2099c:	e0ffef17 	ldw	r3,-68(fp)
   209a0:	e0bff117 	ldw	r2,-60(fp)
   209a4:	1884703a 	and	r2,r3,r2
   209a8:	e0bfef15 	stw	r2,-68(fp)
   209ac:	e0fff017 	ldw	r3,-64(fp)
   209b0:	e0bff217 	ldw	r2,-56(fp)
   209b4:	1884703a 	and	r2,r3,r2
   209b8:	e0bff015 	stw	r2,-64(fp)

	// Finally, getting the final bit stream
	bits = actual | bits;
   209bc:	e0ffef17 	ldw	r3,-68(fp)
   209c0:	e0bff417 	ldw	r2,-48(fp)
   209c4:	1884b03a 	or	r2,r3,r2
   209c8:	e0bfef15 	stw	r2,-68(fp)
   209cc:	e0fff017 	ldw	r3,-64(fp)
   209d0:	e0bff517 	ldw	r2,-44(fp)
   209d4:	1884b03a 	or	r2,r3,r2
   209d8:	e0bff015 	stw	r2,-64(fp)

	// Writing the new value
	HEX2_IOWR_DATA((bits & 0xFFFFFFFF00000000) >> 32); // HEX 5 and 4 (16 LSB are ignored)
   209dc:	e0bff017 	ldw	r2,-64(fp)
   209e0:	1024d83a 	srl	r18,r2,zero
   209e4:	0027883a 	mov	r19,zero
   209e8:	9007883a 	mov	r3,r18
   209ec:	00800134 	movhi	r2,4
   209f0:	10842004 	addi	r2,r2,4224
   209f4:	10c00035 	stwio	r3,0(r2)
	HEX_IOWR_DATA( bits & 0xFFFFFFFF); // HEX 3 to 0;
   209f8:	e0ffef17 	ldw	r3,-68(fp)
   209fc:	00800134 	movhi	r2,4
   20a00:	10842404 	addi	r2,r2,4240
   20a04:	10c00035 	stwio	r3,0(r2)

	return err;
   20a08:	e0bfee17 	ldw	r2,-72(fp)
}
   20a0c:	e6fffc04 	addi	sp,fp,-16
   20a10:	dfc00517 	ldw	ra,20(sp)
   20a14:	df000417 	ldw	fp,16(sp)
   20a18:	dcc00317 	ldw	r19,12(sp)
   20a1c:	dc800217 	ldw	r18,8(sp)
   20a20:	dc400117 	ldw	r17,4(sp)
   20a24:	dc000017 	ldw	r16,0(sp)
   20a28:	dec00604 	addi	sp,sp,24
   20a2c:	f800283a 	ret

00020a30 <time_increment>:
/** =======================================================================
 *	FUNCTIONS
 *  =======================================================================
 */

int time_increment(struct time * const hour){
   20a30:	defffe04 	addi	sp,sp,-8
   20a34:	df000115 	stw	fp,4(sp)
   20a38:	df000104 	addi	fp,sp,4
   20a3c:	e13fff15 	stw	r4,-4(fp)
	// Input checks
	if (hour == NULL)
   20a40:	e0bfff17 	ldw	r2,-4(fp)
   20a44:	1000021e 	bne	r2,zero,20a50 <time_increment+0x20>
	{
		return -1;
   20a48:	00bfffc4 	movi	r2,-1
   20a4c:	00002406 	br	20ae0 <time_increment+0xb0>
	}

	// Increment seconds
	hour->second += 1;
   20a50:	e0bfff17 	ldw	r2,-4(fp)
   20a54:	10800217 	ldw	r2,8(r2)
   20a58:	10c00044 	addi	r3,r2,1
   20a5c:	e0bfff17 	ldw	r2,-4(fp)
   20a60:	10c00215 	stw	r3,8(r2)

	// Check if a minute is elapsed
	if (hour->second > 59)
   20a64:	e0bfff17 	ldw	r2,-4(fp)
   20a68:	10800217 	ldw	r2,8(r2)
   20a6c:	10800f10 	cmplti	r2,r2,60
   20a70:	1000071e 	bne	r2,zero,20a90 <time_increment+0x60>
	{
		hour->second = 0;
   20a74:	e0bfff17 	ldw	r2,-4(fp)
   20a78:	10000215 	stw	zero,8(r2)
		hour->minute += 1;
   20a7c:	e0bfff17 	ldw	r2,-4(fp)
   20a80:	10800117 	ldw	r2,4(r2)
   20a84:	10c00044 	addi	r3,r2,1
   20a88:	e0bfff17 	ldw	r2,-4(fp)
   20a8c:	10c00115 	stw	r3,4(r2)
	}

	// Check if an hour is elapsed
	if (hour->minute > 59)
   20a90:	e0bfff17 	ldw	r2,-4(fp)
   20a94:	10800117 	ldw	r2,4(r2)
   20a98:	10800f10 	cmplti	r2,r2,60
   20a9c:	1000071e 	bne	r2,zero,20abc <time_increment+0x8c>
	{
		hour->minute = 0;
   20aa0:	e0bfff17 	ldw	r2,-4(fp)
   20aa4:	10000115 	stw	zero,4(r2)
		hour->hour += 1;
   20aa8:	e0bfff17 	ldw	r2,-4(fp)
   20aac:	10800017 	ldw	r2,0(r2)
   20ab0:	10c00044 	addi	r3,r2,1
   20ab4:	e0bfff17 	ldw	r2,-4(fp)
   20ab8:	10c00015 	stw	r3,0(r2)
	}

	// Check if a day is elapsed (and output an overflow)
	if (hour->hour > 23)
   20abc:	e0bfff17 	ldw	r2,-4(fp)
   20ac0:	10800017 	ldw	r2,0(r2)
   20ac4:	10800610 	cmplti	r2,r2,24
   20ac8:	1000041e 	bne	r2,zero,20adc <time_increment+0xac>
	{
		hour->hour = 0;
   20acc:	e0bfff17 	ldw	r2,-4(fp)
   20ad0:	10000015 	stw	zero,0(r2)
		return -2;
   20ad4:	00bfff84 	movi	r2,-2
   20ad8:	00000106 	br	20ae0 <time_increment+0xb0>
	}

	return 0;
   20adc:	0005883a 	mov	r2,zero
}
   20ae0:	e037883a 	mov	sp,fp
   20ae4:	df000017 	ldw	fp,0(sp)
   20ae8:	dec00104 	addi	sp,sp,4
   20aec:	f800283a 	ret

00020af0 <time_print>:

int time_print(const struct time * const hour, char buf[6]){
   20af0:	defffb04 	addi	sp,sp,-20
   20af4:	dfc00415 	stw	ra,16(sp)
   20af8:	df000315 	stw	fp,12(sp)
   20afc:	df000304 	addi	fp,sp,12
   20b00:	e13ffe15 	stw	r4,-8(fp)
   20b04:	e17fff15 	stw	r5,-4(fp)
	// Input checks
	if (hour == NULL)
   20b08:	e0bffe17 	ldw	r2,-8(fp)
   20b0c:	1000021e 	bne	r2,zero,20b18 <time_print+0x28>
	{
		return -1;
   20b10:	00bfffc4 	movi	r2,-1
   20b14:	00003006 	br	20bd8 <time_print+0xe8>
	/*
	 * We print the value using sprintf, which return the number of char printed.
	 * We use that value to check for any formatting errors.
	 */

	buf = "......"; // empty char (. is not handled by the hex.h lib).
   20b18:	008000f4 	movhi	r2,3
   20b1c:	108cf004 	addi	r2,r2,13248
   20b20:	e0bfff15 	stw	r2,-4(fp)

	int val = 0;
   20b24:	e03ffd15 	stw	zero,-12(fp)
	val = sprintf(&buf[0], "%d", hour->hour);
   20b28:	e0bffe17 	ldw	r2,-8(fp)
   20b2c:	10800017 	ldw	r2,0(r2)
   20b30:	100d883a 	mov	r6,r2
   20b34:	014000f4 	movhi	r5,3
   20b38:	294cf204 	addi	r5,r5,13256
   20b3c:	e13fff17 	ldw	r4,-4(fp)
   20b40:	0020d840 	call	20d84 <sprintf>
   20b44:	e0bffd15 	stw	r2,-12(fp)
	if (val > 2)
   20b48:	e0bffd17 	ldw	r2,-12(fp)
   20b4c:	108000d0 	cmplti	r2,r2,3
   20b50:	1000021e 	bne	r2,zero,20b5c <time_print+0x6c>
	{
		return -2;
   20b54:	00bfff84 	movi	r2,-2
   20b58:	00001f06 	br	20bd8 <time_print+0xe8>
	}
	val = sprintf(&buf[2], "%d", hour->minute);
   20b5c:	e0bfff17 	ldw	r2,-4(fp)
   20b60:	10c00084 	addi	r3,r2,2
   20b64:	e0bffe17 	ldw	r2,-8(fp)
   20b68:	10800117 	ldw	r2,4(r2)
   20b6c:	100d883a 	mov	r6,r2
   20b70:	014000f4 	movhi	r5,3
   20b74:	294cf204 	addi	r5,r5,13256
   20b78:	1809883a 	mov	r4,r3
   20b7c:	0020d840 	call	20d84 <sprintf>
   20b80:	e0bffd15 	stw	r2,-12(fp)
	if (val > 2)
   20b84:	e0bffd17 	ldw	r2,-12(fp)
   20b88:	108000d0 	cmplti	r2,r2,3
   20b8c:	1000021e 	bne	r2,zero,20b98 <time_print+0xa8>
	{
		return -2;
   20b90:	00bfff84 	movi	r2,-2
   20b94:	00001006 	br	20bd8 <time_print+0xe8>
	}
	val = sprintf(&buf[4], "%d", hour->second);
   20b98:	e0bfff17 	ldw	r2,-4(fp)
   20b9c:	10c00104 	addi	r3,r2,4
   20ba0:	e0bffe17 	ldw	r2,-8(fp)
   20ba4:	10800217 	ldw	r2,8(r2)
   20ba8:	100d883a 	mov	r6,r2
   20bac:	014000f4 	movhi	r5,3
   20bb0:	294cf204 	addi	r5,r5,13256
   20bb4:	1809883a 	mov	r4,r3
   20bb8:	0020d840 	call	20d84 <sprintf>
   20bbc:	e0bffd15 	stw	r2,-12(fp)
	if (val > 2)
   20bc0:	e0bffd17 	ldw	r2,-12(fp)
   20bc4:	108000d0 	cmplti	r2,r2,3
   20bc8:	1000021e 	bne	r2,zero,20bd4 <time_print+0xe4>
	{
		return -2;
   20bcc:	00bfff84 	movi	r2,-2
   20bd0:	00000106 	br	20bd8 <time_print+0xe8>
	}

	return 0;
   20bd4:	0005883a 	mov	r2,zero
}
   20bd8:	e037883a 	mov	sp,fp
   20bdc:	dfc00117 	ldw	ra,4(sp)
   20be0:	df000017 	ldw	fp,0(sp)
   20be4:	dec00204 	addi	sp,sp,8
   20be8:	f800283a 	ret

00020bec <_printf_r>:
   20bec:	defffd04 	addi	sp,sp,-12
   20bf0:	2805883a 	mov	r2,r5
   20bf4:	dfc00015 	stw	ra,0(sp)
   20bf8:	d9800115 	stw	r6,4(sp)
   20bfc:	d9c00215 	stw	r7,8(sp)
   20c00:	21400217 	ldw	r5,8(r4)
   20c04:	d9c00104 	addi	r7,sp,4
   20c08:	100d883a 	mov	r6,r2
   20c0c:	00230600 	call	23060 <___vfprintf_internal_r>
   20c10:	dfc00017 	ldw	ra,0(sp)
   20c14:	dec00304 	addi	sp,sp,12
   20c18:	f800283a 	ret

00020c1c <printf>:
   20c1c:	defffc04 	addi	sp,sp,-16
   20c20:	dfc00015 	stw	ra,0(sp)
   20c24:	d9400115 	stw	r5,4(sp)
   20c28:	d9800215 	stw	r6,8(sp)
   20c2c:	d9c00315 	stw	r7,12(sp)
   20c30:	008000f4 	movhi	r2,3
   20c34:	10946f04 	addi	r2,r2,20924
   20c38:	10800017 	ldw	r2,0(r2)
   20c3c:	200b883a 	mov	r5,r4
   20c40:	d9800104 	addi	r6,sp,4
   20c44:	11000217 	ldw	r4,8(r2)
   20c48:	00252580 	call	25258 <__vfprintf_internal>
   20c4c:	dfc00017 	ldw	ra,0(sp)
   20c50:	dec00404 	addi	sp,sp,16
   20c54:	f800283a 	ret

00020c58 <_puts_r>:
   20c58:	defff604 	addi	sp,sp,-40
   20c5c:	dc000715 	stw	r16,28(sp)
   20c60:	2021883a 	mov	r16,r4
   20c64:	2809883a 	mov	r4,r5
   20c68:	dc400815 	stw	r17,32(sp)
   20c6c:	dfc00915 	stw	ra,36(sp)
   20c70:	2823883a 	mov	r17,r5
   20c74:	0020df00 	call	20df0 <strlen>
   20c78:	10c00044 	addi	r3,r2,1
   20c7c:	d8800115 	stw	r2,4(sp)
   20c80:	008000f4 	movhi	r2,3
   20c84:	108cf304 	addi	r2,r2,13260
   20c88:	d8800215 	stw	r2,8(sp)
   20c8c:	00800044 	movi	r2,1
   20c90:	d8800315 	stw	r2,12(sp)
   20c94:	00800084 	movi	r2,2
   20c98:	dc400015 	stw	r17,0(sp)
   20c9c:	d8c00615 	stw	r3,24(sp)
   20ca0:	dec00415 	stw	sp,16(sp)
   20ca4:	d8800515 	stw	r2,20(sp)
   20ca8:	80000226 	beq	r16,zero,20cb4 <_puts_r+0x5c>
   20cac:	80800e17 	ldw	r2,56(r16)
   20cb0:	10001426 	beq	r2,zero,20d04 <_puts_r+0xac>
   20cb4:	81400217 	ldw	r5,8(r16)
   20cb8:	2880030b 	ldhu	r2,12(r5)
   20cbc:	10c8000c 	andi	r3,r2,8192
   20cc0:	1800061e 	bne	r3,zero,20cdc <_puts_r+0x84>
   20cc4:	29001917 	ldw	r4,100(r5)
   20cc8:	00f7ffc4 	movi	r3,-8193
   20ccc:	10880014 	ori	r2,r2,8192
   20cd0:	20c6703a 	and	r3,r4,r3
   20cd4:	2880030d 	sth	r2,12(r5)
   20cd8:	28c01915 	stw	r3,100(r5)
   20cdc:	d9800404 	addi	r6,sp,16
   20ce0:	8009883a 	mov	r4,r16
   20ce4:	00277880 	call	27788 <__sfvwrite_r>
   20ce8:	1000091e 	bne	r2,zero,20d10 <_puts_r+0xb8>
   20cec:	00800284 	movi	r2,10
   20cf0:	dfc00917 	ldw	ra,36(sp)
   20cf4:	dc400817 	ldw	r17,32(sp)
   20cf8:	dc000717 	ldw	r16,28(sp)
   20cfc:	dec00a04 	addi	sp,sp,40
   20d00:	f800283a 	ret
   20d04:	8009883a 	mov	r4,r16
   20d08:	00273040 	call	27304 <__sinit>
   20d0c:	003fe906 	br	20cb4 <_puts_r+0x5c>
   20d10:	00bfffc4 	movi	r2,-1
   20d14:	003ff606 	br	20cf0 <_puts_r+0x98>

00020d18 <puts>:
   20d18:	008000f4 	movhi	r2,3
   20d1c:	10946f04 	addi	r2,r2,20924
   20d20:	200b883a 	mov	r5,r4
   20d24:	11000017 	ldw	r4,0(r2)
   20d28:	0020c581 	jmpi	20c58 <_puts_r>

00020d2c <_sprintf_r>:
   20d2c:	deffe404 	addi	sp,sp,-112
   20d30:	2807883a 	mov	r3,r5
   20d34:	dfc01a15 	stw	ra,104(sp)
   20d38:	d9c01b15 	stw	r7,108(sp)
   20d3c:	00a00034 	movhi	r2,32768
   20d40:	10bfffc4 	addi	r2,r2,-1
   20d44:	02008204 	movi	r8,520
   20d48:	d8800215 	stw	r2,8(sp)
   20d4c:	d8800515 	stw	r2,20(sp)
   20d50:	d9c01b04 	addi	r7,sp,108
   20d54:	d80b883a 	mov	r5,sp
   20d58:	00bfffc4 	movi	r2,-1
   20d5c:	d8c00015 	stw	r3,0(sp)
   20d60:	d8c00415 	stw	r3,16(sp)
   20d64:	da00030d 	sth	r8,12(sp)
   20d68:	d880038d 	sth	r2,14(sp)
   20d6c:	0020e880 	call	20e88 <___svfprintf_internal_r>
   20d70:	d8c00017 	ldw	r3,0(sp)
   20d74:	18000005 	stb	zero,0(r3)
   20d78:	dfc01a17 	ldw	ra,104(sp)
   20d7c:	dec01c04 	addi	sp,sp,112
   20d80:	f800283a 	ret

00020d84 <sprintf>:
   20d84:	deffe304 	addi	sp,sp,-116
   20d88:	2007883a 	mov	r3,r4
   20d8c:	dfc01a15 	stw	ra,104(sp)
   20d90:	d9801b15 	stw	r6,108(sp)
   20d94:	d9c01c15 	stw	r7,112(sp)
   20d98:	010000f4 	movhi	r4,3
   20d9c:	21146f04 	addi	r4,r4,20924
   20da0:	21000017 	ldw	r4,0(r4)
   20da4:	00a00034 	movhi	r2,32768
   20da8:	10bfffc4 	addi	r2,r2,-1
   20dac:	280d883a 	mov	r6,r5
   20db0:	02008204 	movi	r8,520
   20db4:	d8800215 	stw	r2,8(sp)
   20db8:	d8800515 	stw	r2,20(sp)
   20dbc:	d9c01b04 	addi	r7,sp,108
   20dc0:	d80b883a 	mov	r5,sp
   20dc4:	00bfffc4 	movi	r2,-1
   20dc8:	d8c00015 	stw	r3,0(sp)
   20dcc:	d8c00415 	stw	r3,16(sp)
   20dd0:	da00030d 	sth	r8,12(sp)
   20dd4:	d880038d 	sth	r2,14(sp)
   20dd8:	0020e880 	call	20e88 <___svfprintf_internal_r>
   20ddc:	d8c00017 	ldw	r3,0(sp)
   20de0:	18000005 	stb	zero,0(r3)
   20de4:	dfc01a17 	ldw	ra,104(sp)
   20de8:	dec01d04 	addi	sp,sp,116
   20dec:	f800283a 	ret

00020df0 <strlen>:
   20df0:	208000cc 	andi	r2,r4,3
   20df4:	10002026 	beq	r2,zero,20e78 <strlen+0x88>
   20df8:	20800007 	ldb	r2,0(r4)
   20dfc:	10002026 	beq	r2,zero,20e80 <strlen+0x90>
   20e00:	2005883a 	mov	r2,r4
   20e04:	00000206 	br	20e10 <strlen+0x20>
   20e08:	10c00007 	ldb	r3,0(r2)
   20e0c:	18001826 	beq	r3,zero,20e70 <strlen+0x80>
   20e10:	10800044 	addi	r2,r2,1
   20e14:	10c000cc 	andi	r3,r2,3
   20e18:	183ffb1e 	bne	r3,zero,20e08 <strlen+0x18>
   20e1c:	10c00017 	ldw	r3,0(r2)
   20e20:	01ffbff4 	movhi	r7,65279
   20e24:	39ffbfc4 	addi	r7,r7,-257
   20e28:	00ca303a 	nor	r5,zero,r3
   20e2c:	01a02074 	movhi	r6,32897
   20e30:	19c7883a 	add	r3,r3,r7
   20e34:	31a02004 	addi	r6,r6,-32640
   20e38:	1946703a 	and	r3,r3,r5
   20e3c:	1986703a 	and	r3,r3,r6
   20e40:	1800091e 	bne	r3,zero,20e68 <strlen+0x78>
   20e44:	10800104 	addi	r2,r2,4
   20e48:	10c00017 	ldw	r3,0(r2)
   20e4c:	19cb883a 	add	r5,r3,r7
   20e50:	00c6303a 	nor	r3,zero,r3
   20e54:	28c6703a 	and	r3,r5,r3
   20e58:	1986703a 	and	r3,r3,r6
   20e5c:	183ff926 	beq	r3,zero,20e44 <strlen+0x54>
   20e60:	00000106 	br	20e68 <strlen+0x78>
   20e64:	10800044 	addi	r2,r2,1
   20e68:	10c00007 	ldb	r3,0(r2)
   20e6c:	183ffd1e 	bne	r3,zero,20e64 <strlen+0x74>
   20e70:	1105c83a 	sub	r2,r2,r4
   20e74:	f800283a 	ret
   20e78:	2005883a 	mov	r2,r4
   20e7c:	003fe706 	br	20e1c <strlen+0x2c>
   20e80:	0005883a 	mov	r2,zero
   20e84:	f800283a 	ret

00020e88 <___svfprintf_internal_r>:
   20e88:	deffb704 	addi	sp,sp,-292
   20e8c:	dfc04815 	stw	ra,288(sp)
   20e90:	ddc04615 	stw	r23,280(sp)
   20e94:	d9402c15 	stw	r5,176(sp)
   20e98:	d9003915 	stw	r4,228(sp)
   20e9c:	302f883a 	mov	r23,r6
   20ea0:	d9c02d15 	stw	r7,180(sp)
   20ea4:	df004715 	stw	fp,284(sp)
   20ea8:	dd804515 	stw	r22,276(sp)
   20eac:	dd404415 	stw	r21,272(sp)
   20eb0:	dd004315 	stw	r20,268(sp)
   20eb4:	dcc04215 	stw	r19,264(sp)
   20eb8:	dc804115 	stw	r18,260(sp)
   20ebc:	dc404015 	stw	r17,256(sp)
   20ec0:	dc003f15 	stw	r16,252(sp)
   20ec4:	0027e780 	call	27e78 <_localeconv_r>
   20ec8:	10800017 	ldw	r2,0(r2)
   20ecc:	1009883a 	mov	r4,r2
   20ed0:	d8803415 	stw	r2,208(sp)
   20ed4:	0020df00 	call	20df0 <strlen>
   20ed8:	d8c02c17 	ldw	r3,176(sp)
   20edc:	d8803815 	stw	r2,224(sp)
   20ee0:	1880030b 	ldhu	r2,12(r3)
   20ee4:	1080200c 	andi	r2,r2,128
   20ee8:	10000226 	beq	r2,zero,20ef4 <___svfprintf_internal_r+0x6c>
   20eec:	18800417 	ldw	r2,16(r3)
   20ef0:	10067f26 	beq	r2,zero,228f0 <___svfprintf_internal_r+0x1a68>
   20ef4:	dcc03917 	ldw	r19,228(sp)
   20ef8:	d8c00404 	addi	r3,sp,16
   20efc:	054000f4 	movhi	r21,3
   20f00:	d9001e04 	addi	r4,sp,120
   20f04:	ad4d0484 	addi	r21,r21,13330
   20f08:	d8c01e15 	stw	r3,120(sp)
   20f0c:	d8002015 	stw	zero,128(sp)
   20f10:	d8001f15 	stw	zero,124(sp)
   20f14:	d8003315 	stw	zero,204(sp)
   20f18:	d8003615 	stw	zero,216(sp)
   20f1c:	d8003715 	stw	zero,220(sp)
   20f20:	1811883a 	mov	r8,r3
   20f24:	d8003a15 	stw	zero,232(sp)
   20f28:	d8003b15 	stw	zero,236(sp)
   20f2c:	d8002f15 	stw	zero,188(sp)
   20f30:	d9002815 	stw	r4,160(sp)
   20f34:	b8800007 	ldb	r2,0(r23)
   20f38:	10026726 	beq	r2,zero,218d8 <___svfprintf_internal_r+0xa50>
   20f3c:	00c00944 	movi	r3,37
   20f40:	b821883a 	mov	r16,r23
   20f44:	10c0021e 	bne	r2,r3,20f50 <___svfprintf_internal_r+0xc8>
   20f48:	00001406 	br	20f9c <___svfprintf_internal_r+0x114>
   20f4c:	10c00326 	beq	r2,r3,20f5c <___svfprintf_internal_r+0xd4>
   20f50:	84000044 	addi	r16,r16,1
   20f54:	80800007 	ldb	r2,0(r16)
   20f58:	103ffc1e 	bne	r2,zero,20f4c <___svfprintf_internal_r+0xc4>
   20f5c:	85e3c83a 	sub	r17,r16,r23
   20f60:	88000e26 	beq	r17,zero,20f9c <___svfprintf_internal_r+0x114>
   20f64:	d8c02017 	ldw	r3,128(sp)
   20f68:	d8801f17 	ldw	r2,124(sp)
   20f6c:	45c00015 	stw	r23,0(r8)
   20f70:	1c47883a 	add	r3,r3,r17
   20f74:	10800044 	addi	r2,r2,1
   20f78:	d8c02015 	stw	r3,128(sp)
   20f7c:	44400115 	stw	r17,4(r8)
   20f80:	d8801f15 	stw	r2,124(sp)
   20f84:	00c001c4 	movi	r3,7
   20f88:	18809716 	blt	r3,r2,211e8 <___svfprintf_internal_r+0x360>
   20f8c:	42000204 	addi	r8,r8,8
   20f90:	d9402f17 	ldw	r5,188(sp)
   20f94:	2c4b883a 	add	r5,r5,r17
   20f98:	d9402f15 	stw	r5,188(sp)
   20f9c:	80800007 	ldb	r2,0(r16)
   20fa0:	10009826 	beq	r2,zero,21204 <___svfprintf_internal_r+0x37c>
   20fa4:	84400047 	ldb	r17,1(r16)
   20fa8:	00bfffc4 	movi	r2,-1
   20fac:	85c00044 	addi	r23,r16,1
   20fb0:	d8002785 	stb	zero,158(sp)
   20fb4:	0007883a 	mov	r3,zero
   20fb8:	000f883a 	mov	r7,zero
   20fbc:	d8802915 	stw	r2,164(sp)
   20fc0:	d8003115 	stw	zero,196(sp)
   20fc4:	0025883a 	mov	r18,zero
   20fc8:	01401604 	movi	r5,88
   20fcc:	01800244 	movi	r6,9
   20fd0:	02800a84 	movi	r10,42
   20fd4:	02401b04 	movi	r9,108
   20fd8:	bdc00044 	addi	r23,r23,1
   20fdc:	88bff804 	addi	r2,r17,-32
   20fe0:	2882f036 	bltu	r5,r2,21ba4 <___svfprintf_internal_r+0xd1c>
   20fe4:	100490ba 	slli	r2,r2,2
   20fe8:	010000b4 	movhi	r4,2
   20fec:	2103ff04 	addi	r4,r4,4092
   20ff0:	1105883a 	add	r2,r2,r4
   20ff4:	10800017 	ldw	r2,0(r2)
   20ff8:	1000683a 	jmp	r2
   20ffc:	00021b0c 	andi	zero,zero,2156
   21000:	00021ba4 	muli	zero,zero,2158
   21004:	00021ba4 	muli	zero,zero,2158
   21008:	00021b00 	call	21b0 <__alt_mem_MEMOIRE_ONCHIP-0x1de50>
   2100c:	00021ba4 	muli	zero,zero,2158
   21010:	00021ba4 	muli	zero,zero,2158
   21014:	00021ba4 	muli	zero,zero,2158
   21018:	00021ba4 	muli	zero,zero,2158
   2101c:	00021ba4 	muli	zero,zero,2158
   21020:	00021ba4 	muli	zero,zero,2158
   21024:	00021260 	cmpeqi	zero,zero,2121
   21028:	00021a3c 	xorhi	zero,zero,2152
   2102c:	00021ba4 	muli	zero,zero,2158
   21030:	00021170 	cmpltui	zero,zero,2117
   21034:	00021288 	cmpgei	zero,zero,2122
   21038:	00021ba4 	muli	zero,zero,2158
   2103c:	000212fc 	xorhi	zero,zero,2123
   21040:	000212c8 	cmpgei	zero,zero,2123
   21044:	000212c8 	cmpgei	zero,zero,2123
   21048:	000212c8 	cmpgei	zero,zero,2123
   2104c:	000212c8 	cmpgei	zero,zero,2123
   21050:	000212c8 	cmpgei	zero,zero,2123
   21054:	000212c8 	cmpgei	zero,zero,2123
   21058:	000212c8 	cmpgei	zero,zero,2123
   2105c:	000212c8 	cmpgei	zero,zero,2123
   21060:	000212c8 	cmpgei	zero,zero,2123
   21064:	00021ba4 	muli	zero,zero,2158
   21068:	00021ba4 	muli	zero,zero,2158
   2106c:	00021ba4 	muli	zero,zero,2158
   21070:	00021ba4 	muli	zero,zero,2158
   21074:	00021ba4 	muli	zero,zero,2158
   21078:	00021ba4 	muli	zero,zero,2158
   2107c:	00021ba4 	muli	zero,zero,2158
   21080:	00021ba4 	muli	zero,zero,2158
   21084:	00021ba4 	muli	zero,zero,2158
   21088:	00021ba4 	muli	zero,zero,2158
   2108c:	000213b4 	movhi	zero,2126
   21090:	00021308 	cmpgei	zero,zero,2124
   21094:	00021ba4 	muli	zero,zero,2158
   21098:	00021308 	cmpgei	zero,zero,2124
   2109c:	00021ba4 	muli	zero,zero,2158
   210a0:	00021ba4 	muli	zero,zero,2158
   210a4:	00021ba4 	muli	zero,zero,2158
   210a8:	00021ba4 	muli	zero,zero,2158
   210ac:	000213a8 	cmpgeui	zero,zero,2126
   210b0:	00021ba4 	muli	zero,zero,2158
   210b4:	00021ba4 	muli	zero,zero,2158
   210b8:	00021470 	cmpltui	zero,zero,2129
   210bc:	00021ba4 	muli	zero,zero,2158
   210c0:	00021ba4 	muli	zero,zero,2158
   210c4:	00021ba4 	muli	zero,zero,2158
   210c8:	00021ba4 	muli	zero,zero,2158
   210cc:	00021ba4 	muli	zero,zero,2158
   210d0:	000218e0 	cmpeqi	zero,zero,2147
   210d4:	00021ba4 	muli	zero,zero,2158
   210d8:	00021ba4 	muli	zero,zero,2158
   210dc:	00021940 	call	2194 <__alt_mem_MEMOIRE_ONCHIP-0x1de6c>
   210e0:	00021ba4 	muli	zero,zero,2158
   210e4:	00021ba4 	muli	zero,zero,2158
   210e8:	00021ba4 	muli	zero,zero,2158
   210ec:	00021ba4 	muli	zero,zero,2158
   210f0:	00021ba4 	muli	zero,zero,2158
   210f4:	00021ba4 	muli	zero,zero,2158
   210f8:	00021ba4 	muli	zero,zero,2158
   210fc:	00021ba4 	muli	zero,zero,2158
   21100:	00021ba4 	muli	zero,zero,2158
   21104:	00021ba4 	muli	zero,zero,2158
   21108:	000219f0 	cmpltui	zero,zero,2151
   2110c:	00021b2c 	andhi	zero,zero,2156
   21110:	00021308 	cmpgei	zero,zero,2124
   21114:	00021308 	cmpgei	zero,zero,2124
   21118:	00021308 	cmpgei	zero,zero,2124
   2111c:	00021b80 	call	21b8 <__alt_mem_MEMOIRE_ONCHIP-0x1de48>
   21120:	00021b2c 	andhi	zero,zero,2156
   21124:	00021ba4 	muli	zero,zero,2158
   21128:	00021ba4 	muli	zero,zero,2158
   2112c:	00021b3c 	xorhi	zero,zero,2156
   21130:	00021ba4 	muli	zero,zero,2158
   21134:	00021b4c 	andi	zero,zero,2157
   21138:	00021a2c 	andhi	zero,zero,2152
   2113c:	0002117c 	xorhi	zero,zero,2117
   21140:	00021a4c 	andi	zero,zero,2153
   21144:	00021ba4 	muli	zero,zero,2158
   21148:	00021a58 	cmpnei	zero,zero,2153
   2114c:	00021ba4 	muli	zero,zero,2158
   21150:	00021ab4 	movhi	zero,2154
   21154:	00021ba4 	muli	zero,zero,2158
   21158:	00021ba4 	muli	zero,zero,2158
   2115c:	00021ac4 	movi	zero,2155
   21160:	d9003117 	ldw	r4,196(sp)
   21164:	d8802d15 	stw	r2,180(sp)
   21168:	0109c83a 	sub	r4,zero,r4
   2116c:	d9003115 	stw	r4,196(sp)
   21170:	94800114 	ori	r18,r18,4
   21174:	bc400007 	ldb	r17,0(r23)
   21178:	003f9706 	br	20fd8 <___svfprintf_internal_r+0x150>
   2117c:	00800c04 	movi	r2,48
   21180:	d9002d17 	ldw	r4,180(sp)
   21184:	d9402917 	ldw	r5,164(sp)
   21188:	d8802705 	stb	r2,156(sp)
   2118c:	00801e04 	movi	r2,120
   21190:	d8802745 	stb	r2,157(sp)
   21194:	d8002785 	stb	zero,158(sp)
   21198:	20c00104 	addi	r3,r4,4
   2119c:	25000017 	ldw	r20,0(r4)
   211a0:	002d883a 	mov	r22,zero
   211a4:	90800094 	ori	r2,r18,2
   211a8:	28028616 	blt	r5,zero,21bc4 <___svfprintf_internal_r+0xd3c>
   211ac:	00bfdfc4 	movi	r2,-129
   211b0:	90a4703a 	and	r18,r18,r2
   211b4:	d8c02d15 	stw	r3,180(sp)
   211b8:	94800094 	ori	r18,r18,2
   211bc:	a002731e 	bne	r20,zero,21b8c <___svfprintf_internal_r+0xd04>
   211c0:	008000f4 	movhi	r2,3
   211c4:	108cfd04 	addi	r2,r2,13300
   211c8:	d8803a15 	stw	r2,232(sp)
   211cc:	04401e04 	movi	r17,120
   211d0:	d8c02917 	ldw	r3,164(sp)
   211d4:	0039883a 	mov	fp,zero
   211d8:	1801d526 	beq	r3,zero,21930 <___svfprintf_internal_r+0xaa8>
   211dc:	0029883a 	mov	r20,zero
   211e0:	002d883a 	mov	r22,zero
   211e4:	0001f106 	br	219ac <___svfprintf_internal_r+0xb24>
   211e8:	d9402c17 	ldw	r5,176(sp)
   211ec:	d9801e04 	addi	r6,sp,120
   211f0:	9809883a 	mov	r4,r19
   211f4:	002a5600 	call	2a560 <__ssprint_r>
   211f8:	1000081e 	bne	r2,zero,2121c <___svfprintf_internal_r+0x394>
   211fc:	da000404 	addi	r8,sp,16
   21200:	003f6306 	br	20f90 <___svfprintf_internal_r+0x108>
   21204:	d8802017 	ldw	r2,128(sp)
   21208:	10000426 	beq	r2,zero,2121c <___svfprintf_internal_r+0x394>
   2120c:	d9402c17 	ldw	r5,176(sp)
   21210:	d9003917 	ldw	r4,228(sp)
   21214:	d9801e04 	addi	r6,sp,120
   21218:	002a5600 	call	2a560 <__ssprint_r>
   2121c:	d8802c17 	ldw	r2,176(sp)
   21220:	10c0030b 	ldhu	r3,12(r2)
   21224:	d8802f17 	ldw	r2,188(sp)
   21228:	18c0100c 	andi	r3,r3,64
   2122c:	1805f51e 	bne	r3,zero,22a04 <___svfprintf_internal_r+0x1b7c>
   21230:	dfc04817 	ldw	ra,288(sp)
   21234:	df004717 	ldw	fp,284(sp)
   21238:	ddc04617 	ldw	r23,280(sp)
   2123c:	dd804517 	ldw	r22,276(sp)
   21240:	dd404417 	ldw	r21,272(sp)
   21244:	dd004317 	ldw	r20,268(sp)
   21248:	dcc04217 	ldw	r19,264(sp)
   2124c:	dc804117 	ldw	r18,260(sp)
   21250:	dc404017 	ldw	r17,256(sp)
   21254:	dc003f17 	ldw	r16,252(sp)
   21258:	dec04904 	addi	sp,sp,292
   2125c:	f800283a 	ret
   21260:	d8802d17 	ldw	r2,180(sp)
   21264:	d9002d17 	ldw	r4,180(sp)
   21268:	10800017 	ldw	r2,0(r2)
   2126c:	d8803115 	stw	r2,196(sp)
   21270:	20800104 	addi	r2,r4,4
   21274:	d9003117 	ldw	r4,196(sp)
   21278:	203fb916 	blt	r4,zero,21160 <___svfprintf_internal_r+0x2d8>
   2127c:	d8802d15 	stw	r2,180(sp)
   21280:	bc400007 	ldb	r17,0(r23)
   21284:	003f5406 	br	20fd8 <___svfprintf_internal_r+0x150>
   21288:	bc400007 	ldb	r17,0(r23)
   2128c:	bac00044 	addi	r11,r23,1
   21290:	8a873926 	beq	r17,r10,22f78 <___svfprintf_internal_r+0x20f0>
   21294:	88bff404 	addi	r2,r17,-48
   21298:	0009883a 	mov	r4,zero
   2129c:	30868836 	bltu	r6,r2,22cc0 <___svfprintf_internal_r+0x1e38>
   212a0:	5c400007 	ldb	r17,0(r11)
   212a4:	210002a4 	muli	r4,r4,10
   212a8:	5dc00044 	addi	r23,r11,1
   212ac:	b817883a 	mov	r11,r23
   212b0:	2089883a 	add	r4,r4,r2
   212b4:	88bff404 	addi	r2,r17,-48
   212b8:	30bff92e 	bgeu	r6,r2,212a0 <___svfprintf_internal_r+0x418>
   212bc:	2005d716 	blt	r4,zero,22a1c <___svfprintf_internal_r+0x1b94>
   212c0:	d9002915 	stw	r4,164(sp)
   212c4:	003f4506 	br	20fdc <___svfprintf_internal_r+0x154>
   212c8:	b809883a 	mov	r4,r23
   212cc:	d8003115 	stw	zero,196(sp)
   212d0:	88bff404 	addi	r2,r17,-48
   212d4:	0017883a 	mov	r11,zero
   212d8:	24400007 	ldb	r17,0(r4)
   212dc:	5ac002a4 	muli	r11,r11,10
   212e0:	bdc00044 	addi	r23,r23,1
   212e4:	b809883a 	mov	r4,r23
   212e8:	12d7883a 	add	r11,r2,r11
   212ec:	88bff404 	addi	r2,r17,-48
   212f0:	30bff92e 	bgeu	r6,r2,212d8 <___svfprintf_internal_r+0x450>
   212f4:	dac03115 	stw	r11,196(sp)
   212f8:	003f3806 	br	20fdc <___svfprintf_internal_r+0x154>
   212fc:	94802014 	ori	r18,r18,128
   21300:	bc400007 	ldb	r17,0(r23)
   21304:	003f3406 	br	20fd8 <___svfprintf_internal_r+0x150>
   21308:	18c03fcc 	andi	r3,r3,255
   2130c:	1807471e 	bne	r3,zero,2302c <___svfprintf_internal_r+0x21a4>
   21310:	9080020c 	andi	r2,r18,8
   21314:	10047d26 	beq	r2,zero,2250c <___svfprintf_internal_r+0x1684>
   21318:	d8c02d17 	ldw	r3,180(sp)
   2131c:	d9002d17 	ldw	r4,180(sp)
   21320:	d9402d17 	ldw	r5,180(sp)
   21324:	18c00017 	ldw	r3,0(r3)
   21328:	21000117 	ldw	r4,4(r4)
   2132c:	29400204 	addi	r5,r5,8
   21330:	d8c03615 	stw	r3,216(sp)
   21334:	d9003715 	stw	r4,220(sp)
   21338:	d9402d15 	stw	r5,180(sp)
   2133c:	d9003617 	ldw	r4,216(sp)
   21340:	d9403717 	ldw	r5,220(sp)
   21344:	da003e15 	stw	r8,248(sp)
   21348:	04000044 	movi	r16,1
   2134c:	002a2800 	call	2a280 <__fpclassifyd>
   21350:	da003e17 	ldw	r8,248(sp)
   21354:	14044b1e 	bne	r2,r16,22484 <___svfprintf_internal_r+0x15fc>
   21358:	d9003617 	ldw	r4,216(sp)
   2135c:	d9403717 	ldw	r5,220(sp)
   21360:	000d883a 	mov	r6,zero
   21364:	000f883a 	mov	r7,zero
   21368:	002f8440 	call	2f844 <__ledf2>
   2136c:	da003e17 	ldw	r8,248(sp)
   21370:	1005f316 	blt	r2,zero,22b40 <___svfprintf_internal_r+0x1cb8>
   21374:	df002783 	ldbu	fp,158(sp)
   21378:	008011c4 	movi	r2,71
   2137c:	1445590e 	bge	r2,r17,228e4 <___svfprintf_internal_r+0x1a5c>
   21380:	040000f4 	movhi	r16,3
   21384:	840cf504 	addi	r16,r16,13268
   21388:	00c000c4 	movi	r3,3
   2138c:	00bfdfc4 	movi	r2,-129
   21390:	d8c02a15 	stw	r3,168(sp)
   21394:	90a4703a 	and	r18,r18,r2
   21398:	d8c02e15 	stw	r3,184(sp)
   2139c:	d8002915 	stw	zero,164(sp)
   213a0:	d8003215 	stw	zero,200(sp)
   213a4:	00006606 	br	21540 <___svfprintf_internal_r+0x6b8>
   213a8:	94800214 	ori	r18,r18,8
   213ac:	bc400007 	ldb	r17,0(r23)
   213b0:	003f0906 	br	20fd8 <___svfprintf_internal_r+0x150>
   213b4:	18c03fcc 	andi	r3,r3,255
   213b8:	1807181e 	bne	r3,zero,2301c <___svfprintf_internal_r+0x2194>
   213bc:	94800414 	ori	r18,r18,16
   213c0:	9080080c 	andi	r2,r18,32
   213c4:	10039626 	beq	r2,zero,22220 <___svfprintf_internal_r+0x1398>
   213c8:	d9402d17 	ldw	r5,180(sp)
   213cc:	28800117 	ldw	r2,4(r5)
   213d0:	2d000017 	ldw	r20,0(r5)
   213d4:	29400204 	addi	r5,r5,8
   213d8:	d9402d15 	stw	r5,180(sp)
   213dc:	102d883a 	mov	r22,r2
   213e0:	10039816 	blt	r2,zero,22244 <___svfprintf_internal_r+0x13bc>
   213e4:	d9402917 	ldw	r5,164(sp)
   213e8:	df002783 	ldbu	fp,158(sp)
   213ec:	2803ab16 	blt	r5,zero,2229c <___svfprintf_internal_r+0x1414>
   213f0:	00ffdfc4 	movi	r3,-129
   213f4:	a584b03a 	or	r2,r20,r22
   213f8:	90e4703a 	and	r18,r18,r3
   213fc:	10014a26 	beq	r2,zero,21928 <___svfprintf_internal_r+0xaa0>
   21400:	b0034b26 	beq	r22,zero,22130 <___svfprintf_internal_r+0x12a8>
   21404:	dc402a15 	stw	r17,168(sp)
   21408:	dc001e04 	addi	r16,sp,120
   2140c:	b023883a 	mov	r17,r22
   21410:	402d883a 	mov	r22,r8
   21414:	a009883a 	mov	r4,r20
   21418:	880b883a 	mov	r5,r17
   2141c:	01800284 	movi	r6,10
   21420:	000f883a 	mov	r7,zero
   21424:	002de600 	call	2de60 <__umoddi3>
   21428:	10800c04 	addi	r2,r2,48
   2142c:	843fffc4 	addi	r16,r16,-1
   21430:	a009883a 	mov	r4,r20
   21434:	880b883a 	mov	r5,r17
   21438:	80800005 	stb	r2,0(r16)
   2143c:	01800284 	movi	r6,10
   21440:	000f883a 	mov	r7,zero
   21444:	002d8e80 	call	2d8e8 <__udivdi3>
   21448:	1029883a 	mov	r20,r2
   2144c:	10c4b03a 	or	r2,r2,r3
   21450:	1823883a 	mov	r17,r3
   21454:	103fef1e 	bne	r2,zero,21414 <___svfprintf_internal_r+0x58c>
   21458:	d8c02817 	ldw	r3,160(sp)
   2145c:	dc402a17 	ldw	r17,168(sp)
   21460:	b011883a 	mov	r8,r22
   21464:	1c07c83a 	sub	r3,r3,r16
   21468:	d8c02e15 	stw	r3,184(sp)
   2146c:	00002e06 	br	21528 <___svfprintf_internal_r+0x6a0>
   21470:	18c03fcc 	andi	r3,r3,255
   21474:	1806e71e 	bne	r3,zero,23014 <___svfprintf_internal_r+0x218c>
   21478:	94800414 	ori	r18,r18,16
   2147c:	9080080c 	andi	r2,r18,32
   21480:	1002d426 	beq	r2,zero,21fd4 <___svfprintf_internal_r+0x114c>
   21484:	d9402d17 	ldw	r5,180(sp)
   21488:	d8c02917 	ldw	r3,164(sp)
   2148c:	d8002785 	stb	zero,158(sp)
   21490:	28800204 	addi	r2,r5,8
   21494:	2d000017 	ldw	r20,0(r5)
   21498:	2d800117 	ldw	r22,4(r5)
   2149c:	18041516 	blt	r3,zero,224f4 <___svfprintf_internal_r+0x166c>
   214a0:	013fdfc4 	movi	r4,-129
   214a4:	a586b03a 	or	r3,r20,r22
   214a8:	d8802d15 	stw	r2,180(sp)
   214ac:	9124703a 	and	r18,r18,r4
   214b0:	1802d51e 	bne	r3,zero,22008 <___svfprintf_internal_r+0x1180>
   214b4:	d9402917 	ldw	r5,164(sp)
   214b8:	0039883a 	mov	fp,zero
   214bc:	2806be26 	beq	r5,zero,22fb8 <___svfprintf_internal_r+0x2130>
   214c0:	0029883a 	mov	r20,zero
   214c4:	002d883a 	mov	r22,zero
   214c8:	dc001e04 	addi	r16,sp,120
   214cc:	a006d0fa 	srli	r3,r20,3
   214d0:	b008977a 	slli	r4,r22,29
   214d4:	b02cd0fa 	srli	r22,r22,3
   214d8:	a50001cc 	andi	r20,r20,7
   214dc:	a0800c04 	addi	r2,r20,48
   214e0:	843fffc4 	addi	r16,r16,-1
   214e4:	20e8b03a 	or	r20,r4,r3
   214e8:	80800005 	stb	r2,0(r16)
   214ec:	a586b03a 	or	r3,r20,r22
   214f0:	183ff61e 	bne	r3,zero,214cc <___svfprintf_internal_r+0x644>
   214f4:	90c0004c 	andi	r3,r18,1
   214f8:	18013926 	beq	r3,zero,219e0 <___svfprintf_internal_r+0xb58>
   214fc:	10803fcc 	andi	r2,r2,255
   21500:	1080201c 	xori	r2,r2,128
   21504:	10bfe004 	addi	r2,r2,-128
   21508:	00c00c04 	movi	r3,48
   2150c:	10c13426 	beq	r2,r3,219e0 <___svfprintf_internal_r+0xb58>
   21510:	80ffffc5 	stb	r3,-1(r16)
   21514:	d8c02817 	ldw	r3,160(sp)
   21518:	80bfffc4 	addi	r2,r16,-1
   2151c:	1021883a 	mov	r16,r2
   21520:	1887c83a 	sub	r3,r3,r2
   21524:	d8c02e15 	stw	r3,184(sp)
   21528:	d8802e17 	ldw	r2,184(sp)
   2152c:	d9002917 	ldw	r4,164(sp)
   21530:	1100010e 	bge	r2,r4,21538 <___svfprintf_internal_r+0x6b0>
   21534:	2005883a 	mov	r2,r4
   21538:	d8802a15 	stw	r2,168(sp)
   2153c:	d8003215 	stw	zero,200(sp)
   21540:	e7003fcc 	andi	fp,fp,255
   21544:	e700201c 	xori	fp,fp,128
   21548:	e73fe004 	addi	fp,fp,-128
   2154c:	e0000326 	beq	fp,zero,2155c <___svfprintf_internal_r+0x6d4>
   21550:	d8c02a17 	ldw	r3,168(sp)
   21554:	18c00044 	addi	r3,r3,1
   21558:	d8c02a15 	stw	r3,168(sp)
   2155c:	90c0008c 	andi	r3,r18,2
   21560:	d8c02b15 	stw	r3,172(sp)
   21564:	18000326 	beq	r3,zero,21574 <___svfprintf_internal_r+0x6ec>
   21568:	d8c02a17 	ldw	r3,168(sp)
   2156c:	18c00084 	addi	r3,r3,2
   21570:	d8c02a15 	stw	r3,168(sp)
   21574:	90c0210c 	andi	r3,r18,132
   21578:	d8c03015 	stw	r3,192(sp)
   2157c:	1801a11e 	bne	r3,zero,21c04 <___svfprintf_internal_r+0xd7c>
   21580:	d9003117 	ldw	r4,196(sp)
   21584:	d8c02a17 	ldw	r3,168(sp)
   21588:	20e9c83a 	sub	r20,r4,r3
   2158c:	05019d0e 	bge	zero,r20,21c04 <___svfprintf_internal_r+0xd7c>
   21590:	02400404 	movi	r9,16
   21594:	d8c02017 	ldw	r3,128(sp)
   21598:	d8801f17 	ldw	r2,124(sp)
   2159c:	4d051b0e 	bge	r9,r20,22a0c <___svfprintf_internal_r+0x1b84>
   215a0:	014000f4 	movhi	r5,3
   215a4:	294d0884 	addi	r5,r5,13346
   215a8:	dc403c15 	stw	r17,240(sp)
   215ac:	d9403515 	stw	r5,212(sp)
   215b0:	a023883a 	mov	r17,r20
   215b4:	482d883a 	mov	r22,r9
   215b8:	9029883a 	mov	r20,r18
   215bc:	070001c4 	movi	fp,7
   215c0:	8025883a 	mov	r18,r16
   215c4:	dc002c17 	ldw	r16,176(sp)
   215c8:	00000306 	br	215d8 <___svfprintf_internal_r+0x750>
   215cc:	8c7ffc04 	addi	r17,r17,-16
   215d0:	42000204 	addi	r8,r8,8
   215d4:	b440130e 	bge	r22,r17,21624 <___svfprintf_internal_r+0x79c>
   215d8:	010000f4 	movhi	r4,3
   215dc:	18c00404 	addi	r3,r3,16
   215e0:	10800044 	addi	r2,r2,1
   215e4:	210d0884 	addi	r4,r4,13346
   215e8:	41000015 	stw	r4,0(r8)
   215ec:	45800115 	stw	r22,4(r8)
   215f0:	d8c02015 	stw	r3,128(sp)
   215f4:	d8801f15 	stw	r2,124(sp)
   215f8:	e0bff40e 	bge	fp,r2,215cc <___svfprintf_internal_r+0x744>
   215fc:	d9801e04 	addi	r6,sp,120
   21600:	800b883a 	mov	r5,r16
   21604:	9809883a 	mov	r4,r19
   21608:	002a5600 	call	2a560 <__ssprint_r>
   2160c:	103f031e 	bne	r2,zero,2121c <___svfprintf_internal_r+0x394>
   21610:	8c7ffc04 	addi	r17,r17,-16
   21614:	d8c02017 	ldw	r3,128(sp)
   21618:	d8801f17 	ldw	r2,124(sp)
   2161c:	da000404 	addi	r8,sp,16
   21620:	b47fed16 	blt	r22,r17,215d8 <___svfprintf_internal_r+0x750>
   21624:	9021883a 	mov	r16,r18
   21628:	a025883a 	mov	r18,r20
   2162c:	8829883a 	mov	r20,r17
   21630:	dc403c17 	ldw	r17,240(sp)
   21634:	d9403517 	ldw	r5,212(sp)
   21638:	a0c7883a 	add	r3,r20,r3
   2163c:	10800044 	addi	r2,r2,1
   21640:	41400015 	stw	r5,0(r8)
   21644:	45000115 	stw	r20,4(r8)
   21648:	d8c02015 	stw	r3,128(sp)
   2164c:	d8801f15 	stw	r2,124(sp)
   21650:	010001c4 	movi	r4,7
   21654:	20829f16 	blt	r4,r2,220d4 <___svfprintf_internal_r+0x124c>
   21658:	df002787 	ldb	fp,158(sp)
   2165c:	42000204 	addi	r8,r8,8
   21660:	e0000c26 	beq	fp,zero,21694 <___svfprintf_internal_r+0x80c>
   21664:	d8801f17 	ldw	r2,124(sp)
   21668:	d9002784 	addi	r4,sp,158
   2166c:	18c00044 	addi	r3,r3,1
   21670:	10800044 	addi	r2,r2,1
   21674:	41000015 	stw	r4,0(r8)
   21678:	01000044 	movi	r4,1
   2167c:	41000115 	stw	r4,4(r8)
   21680:	d8c02015 	stw	r3,128(sp)
   21684:	d8801f15 	stw	r2,124(sp)
   21688:	010001c4 	movi	r4,7
   2168c:	20823816 	blt	r4,r2,21f70 <___svfprintf_internal_r+0x10e8>
   21690:	42000204 	addi	r8,r8,8
   21694:	d8802b17 	ldw	r2,172(sp)
   21698:	10000c26 	beq	r2,zero,216cc <___svfprintf_internal_r+0x844>
   2169c:	d8801f17 	ldw	r2,124(sp)
   216a0:	d9002704 	addi	r4,sp,156
   216a4:	18c00084 	addi	r3,r3,2
   216a8:	10800044 	addi	r2,r2,1
   216ac:	41000015 	stw	r4,0(r8)
   216b0:	01000084 	movi	r4,2
   216b4:	41000115 	stw	r4,4(r8)
   216b8:	d8c02015 	stw	r3,128(sp)
   216bc:	d8801f15 	stw	r2,124(sp)
   216c0:	010001c4 	movi	r4,7
   216c4:	20823216 	blt	r4,r2,21f90 <___svfprintf_internal_r+0x1108>
   216c8:	42000204 	addi	r8,r8,8
   216cc:	d9003017 	ldw	r4,192(sp)
   216d0:	00802004 	movi	r2,128
   216d4:	20819726 	beq	r4,r2,21d34 <___svfprintf_internal_r+0xeac>
   216d8:	d9402917 	ldw	r5,164(sp)
   216dc:	d8802e17 	ldw	r2,184(sp)
   216e0:	28adc83a 	sub	r22,r5,r2
   216e4:	05802f0e 	bge	zero,r22,217a4 <___svfprintf_internal_r+0x91c>
   216e8:	07000404 	movi	fp,16
   216ec:	d8801f17 	ldw	r2,124(sp)
   216f0:	e583c00e 	bge	fp,r22,225f4 <___svfprintf_internal_r+0x176c>
   216f4:	014000f4 	movhi	r5,3
   216f8:	294d0484 	addi	r5,r5,13330
   216fc:	dc402915 	stw	r17,164(sp)
   21700:	d9402b15 	stw	r5,172(sp)
   21704:	b023883a 	mov	r17,r22
   21708:	050001c4 	movi	r20,7
   2170c:	902d883a 	mov	r22,r18
   21710:	8025883a 	mov	r18,r16
   21714:	dc002c17 	ldw	r16,176(sp)
   21718:	00000306 	br	21728 <___svfprintf_internal_r+0x8a0>
   2171c:	8c7ffc04 	addi	r17,r17,-16
   21720:	42000204 	addi	r8,r8,8
   21724:	e440110e 	bge	fp,r17,2176c <___svfprintf_internal_r+0x8e4>
   21728:	18c00404 	addi	r3,r3,16
   2172c:	10800044 	addi	r2,r2,1
   21730:	45400015 	stw	r21,0(r8)
   21734:	47000115 	stw	fp,4(r8)
   21738:	d8c02015 	stw	r3,128(sp)
   2173c:	d8801f15 	stw	r2,124(sp)
   21740:	a0bff60e 	bge	r20,r2,2171c <___svfprintf_internal_r+0x894>
   21744:	d9801e04 	addi	r6,sp,120
   21748:	800b883a 	mov	r5,r16
   2174c:	9809883a 	mov	r4,r19
   21750:	002a5600 	call	2a560 <__ssprint_r>
   21754:	103eb11e 	bne	r2,zero,2121c <___svfprintf_internal_r+0x394>
   21758:	8c7ffc04 	addi	r17,r17,-16
   2175c:	d8c02017 	ldw	r3,128(sp)
   21760:	d8801f17 	ldw	r2,124(sp)
   21764:	da000404 	addi	r8,sp,16
   21768:	e47fef16 	blt	fp,r17,21728 <___svfprintf_internal_r+0x8a0>
   2176c:	9021883a 	mov	r16,r18
   21770:	b025883a 	mov	r18,r22
   21774:	882d883a 	mov	r22,r17
   21778:	dc402917 	ldw	r17,164(sp)
   2177c:	d9002b17 	ldw	r4,172(sp)
   21780:	1d87883a 	add	r3,r3,r22
   21784:	10800044 	addi	r2,r2,1
   21788:	41000015 	stw	r4,0(r8)
   2178c:	45800115 	stw	r22,4(r8)
   21790:	d8c02015 	stw	r3,128(sp)
   21794:	d8801f15 	stw	r2,124(sp)
   21798:	010001c4 	movi	r4,7
   2179c:	2081ec16 	blt	r4,r2,21f50 <___svfprintf_internal_r+0x10c8>
   217a0:	42000204 	addi	r8,r8,8
   217a4:	9080400c 	andi	r2,r18,256
   217a8:	1001181e 	bne	r2,zero,21c0c <___svfprintf_internal_r+0xd84>
   217ac:	d9402e17 	ldw	r5,184(sp)
   217b0:	d8801f17 	ldw	r2,124(sp)
   217b4:	44000015 	stw	r16,0(r8)
   217b8:	1947883a 	add	r3,r3,r5
   217bc:	10800044 	addi	r2,r2,1
   217c0:	41400115 	stw	r5,4(r8)
   217c4:	d8c02015 	stw	r3,128(sp)
   217c8:	d8801f15 	stw	r2,124(sp)
   217cc:	010001c4 	movi	r4,7
   217d0:	2081d116 	blt	r4,r2,21f18 <___svfprintf_internal_r+0x1090>
   217d4:	42000204 	addi	r8,r8,8
   217d8:	9480010c 	andi	r18,r18,4
   217dc:	90003226 	beq	r18,zero,218a8 <___svfprintf_internal_r+0xa20>
   217e0:	d9403117 	ldw	r5,196(sp)
   217e4:	d8802a17 	ldw	r2,168(sp)
   217e8:	28a1c83a 	sub	r16,r5,r2
   217ec:	04002e0e 	bge	zero,r16,218a8 <___svfprintf_internal_r+0xa20>
   217f0:	04400404 	movi	r17,16
   217f4:	d8801f17 	ldw	r2,124(sp)
   217f8:	8c04b90e 	bge	r17,r16,22ae0 <___svfprintf_internal_r+0x1c58>
   217fc:	014000f4 	movhi	r5,3
   21800:	294d0884 	addi	r5,r5,13346
   21804:	d9403515 	stw	r5,212(sp)
   21808:	048001c4 	movi	r18,7
   2180c:	dd002c17 	ldw	r20,176(sp)
   21810:	00000306 	br	21820 <___svfprintf_internal_r+0x998>
   21814:	843ffc04 	addi	r16,r16,-16
   21818:	42000204 	addi	r8,r8,8
   2181c:	8c00130e 	bge	r17,r16,2186c <___svfprintf_internal_r+0x9e4>
   21820:	010000f4 	movhi	r4,3
   21824:	18c00404 	addi	r3,r3,16
   21828:	10800044 	addi	r2,r2,1
   2182c:	210d0884 	addi	r4,r4,13346
   21830:	41000015 	stw	r4,0(r8)
   21834:	44400115 	stw	r17,4(r8)
   21838:	d8c02015 	stw	r3,128(sp)
   2183c:	d8801f15 	stw	r2,124(sp)
   21840:	90bff40e 	bge	r18,r2,21814 <___svfprintf_internal_r+0x98c>
   21844:	d9801e04 	addi	r6,sp,120
   21848:	a00b883a 	mov	r5,r20
   2184c:	9809883a 	mov	r4,r19
   21850:	002a5600 	call	2a560 <__ssprint_r>
   21854:	103e711e 	bne	r2,zero,2121c <___svfprintf_internal_r+0x394>
   21858:	843ffc04 	addi	r16,r16,-16
   2185c:	d8c02017 	ldw	r3,128(sp)
   21860:	d8801f17 	ldw	r2,124(sp)
   21864:	da000404 	addi	r8,sp,16
   21868:	8c3fed16 	blt	r17,r16,21820 <___svfprintf_internal_r+0x998>
   2186c:	d9403517 	ldw	r5,212(sp)
   21870:	1c07883a 	add	r3,r3,r16
   21874:	10800044 	addi	r2,r2,1
   21878:	41400015 	stw	r5,0(r8)
   2187c:	44000115 	stw	r16,4(r8)
   21880:	d8c02015 	stw	r3,128(sp)
   21884:	d8801f15 	stw	r2,124(sp)
   21888:	010001c4 	movi	r4,7
   2188c:	2080060e 	bge	r4,r2,218a8 <___svfprintf_internal_r+0xa20>
   21890:	d9402c17 	ldw	r5,176(sp)
   21894:	d9801e04 	addi	r6,sp,120
   21898:	9809883a 	mov	r4,r19
   2189c:	002a5600 	call	2a560 <__ssprint_r>
   218a0:	103e5e1e 	bne	r2,zero,2121c <___svfprintf_internal_r+0x394>
   218a4:	d8c02017 	ldw	r3,128(sp)
   218a8:	d8803117 	ldw	r2,196(sp)
   218ac:	d9002a17 	ldw	r4,168(sp)
   218b0:	1100010e 	bge	r2,r4,218b8 <___svfprintf_internal_r+0xa30>
   218b4:	2005883a 	mov	r2,r4
   218b8:	d9402f17 	ldw	r5,188(sp)
   218bc:	288b883a 	add	r5,r5,r2
   218c0:	d9402f15 	stw	r5,188(sp)
   218c4:	18019c1e 	bne	r3,zero,21f38 <___svfprintf_internal_r+0x10b0>
   218c8:	b8800007 	ldb	r2,0(r23)
   218cc:	d8001f15 	stw	zero,124(sp)
   218d0:	da000404 	addi	r8,sp,16
   218d4:	103d991e 	bne	r2,zero,20f3c <___svfprintf_internal_r+0xb4>
   218d8:	b821883a 	mov	r16,r23
   218dc:	003daf06 	br	20f9c <___svfprintf_internal_r+0x114>
   218e0:	18c03fcc 	andi	r3,r3,255
   218e4:	1805c71e 	bne	r3,zero,23004 <___svfprintf_internal_r+0x217c>
   218e8:	94800414 	ori	r18,r18,16
   218ec:	9080080c 	andi	r2,r18,32
   218f0:	10020126 	beq	r2,zero,220f8 <___svfprintf_internal_r+0x1270>
   218f4:	d8802d17 	ldw	r2,180(sp)
   218f8:	d9002917 	ldw	r4,164(sp)
   218fc:	d8002785 	stb	zero,158(sp)
   21900:	10c00204 	addi	r3,r2,8
   21904:	15000017 	ldw	r20,0(r2)
   21908:	15800117 	ldw	r22,4(r2)
   2190c:	20038e16 	blt	r4,zero,22748 <___svfprintf_internal_r+0x18c0>
   21910:	013fdfc4 	movi	r4,-129
   21914:	a584b03a 	or	r2,r20,r22
   21918:	d8c02d15 	stw	r3,180(sp)
   2191c:	9124703a 	and	r18,r18,r4
   21920:	0039883a 	mov	fp,zero
   21924:	103eb61e 	bne	r2,zero,21400 <___svfprintf_internal_r+0x578>
   21928:	d8802917 	ldw	r2,164(sp)
   2192c:	1002c81e 	bne	r2,zero,22450 <___svfprintf_internal_r+0x15c8>
   21930:	d8002915 	stw	zero,164(sp)
   21934:	d8002e15 	stw	zero,184(sp)
   21938:	dc001e04 	addi	r16,sp,120
   2193c:	003efa06 	br	21528 <___svfprintf_internal_r+0x6a0>
   21940:	18c03fcc 	andi	r3,r3,255
   21944:	1805ad1e 	bne	r3,zero,22ffc <___svfprintf_internal_r+0x2174>
   21948:	014000f4 	movhi	r5,3
   2194c:	294cf804 	addi	r5,r5,13280
   21950:	d9403a15 	stw	r5,232(sp)
   21954:	9080080c 	andi	r2,r18,32
   21958:	10006126 	beq	r2,zero,21ae0 <___svfprintf_internal_r+0xc58>
   2195c:	d8802d17 	ldw	r2,180(sp)
   21960:	15000017 	ldw	r20,0(r2)
   21964:	15800117 	ldw	r22,4(r2)
   21968:	10800204 	addi	r2,r2,8
   2196c:	d8802d15 	stw	r2,180(sp)
   21970:	9080004c 	andi	r2,r18,1
   21974:	10018e26 	beq	r2,zero,21fb0 <___svfprintf_internal_r+0x1128>
   21978:	a584b03a 	or	r2,r20,r22
   2197c:	10030926 	beq	r2,zero,225a4 <___svfprintf_internal_r+0x171c>
   21980:	d8c02917 	ldw	r3,164(sp)
   21984:	00800c04 	movi	r2,48
   21988:	d8802705 	stb	r2,156(sp)
   2198c:	dc402745 	stb	r17,157(sp)
   21990:	d8002785 	stb	zero,158(sp)
   21994:	90800094 	ori	r2,r18,2
   21998:	18048716 	blt	r3,zero,22bb8 <___svfprintf_internal_r+0x1d30>
   2199c:	00bfdfc4 	movi	r2,-129
   219a0:	90a4703a 	and	r18,r18,r2
   219a4:	94800094 	ori	r18,r18,2
   219a8:	0039883a 	mov	fp,zero
   219ac:	d9003a17 	ldw	r4,232(sp)
   219b0:	dc001e04 	addi	r16,sp,120
   219b4:	a08003cc 	andi	r2,r20,15
   219b8:	b006973a 	slli	r3,r22,28
   219bc:	2085883a 	add	r2,r4,r2
   219c0:	a028d13a 	srli	r20,r20,4
   219c4:	10800003 	ldbu	r2,0(r2)
   219c8:	b02cd13a 	srli	r22,r22,4
   219cc:	843fffc4 	addi	r16,r16,-1
   219d0:	1d28b03a 	or	r20,r3,r20
   219d4:	80800005 	stb	r2,0(r16)
   219d8:	a584b03a 	or	r2,r20,r22
   219dc:	103ff51e 	bne	r2,zero,219b4 <___svfprintf_internal_r+0xb2c>
   219e0:	d8c02817 	ldw	r3,160(sp)
   219e4:	1c07c83a 	sub	r3,r3,r16
   219e8:	d8c02e15 	stw	r3,184(sp)
   219ec:	003ece06 	br	21528 <___svfprintf_internal_r+0x6a0>
   219f0:	d8c02d17 	ldw	r3,180(sp)
   219f4:	d9002d17 	ldw	r4,180(sp)
   219f8:	d8002785 	stb	zero,158(sp)
   219fc:	18800017 	ldw	r2,0(r3)
   21a00:	21000104 	addi	r4,r4,4
   21a04:	00c00044 	movi	r3,1
   21a08:	d8c02a15 	stw	r3,168(sp)
   21a0c:	d8801405 	stb	r2,80(sp)
   21a10:	d9002d15 	stw	r4,180(sp)
   21a14:	d8c02e15 	stw	r3,184(sp)
   21a18:	d8002915 	stw	zero,164(sp)
   21a1c:	d8003215 	stw	zero,200(sp)
   21a20:	dc001404 	addi	r16,sp,80
   21a24:	0039883a 	mov	fp,zero
   21a28:	003ecc06 	br	2155c <___svfprintf_internal_r+0x6d4>
   21a2c:	18c03fcc 	andi	r3,r3,255
   21a30:	183e9226 	beq	r3,zero,2147c <___svfprintf_internal_r+0x5f4>
   21a34:	d9c02785 	stb	r7,158(sp)
   21a38:	003e9006 	br	2147c <___svfprintf_internal_r+0x5f4>
   21a3c:	00c00044 	movi	r3,1
   21a40:	01c00ac4 	movi	r7,43
   21a44:	bc400007 	ldb	r17,0(r23)
   21a48:	003d6306 	br	20fd8 <___svfprintf_internal_r+0x150>
   21a4c:	94800814 	ori	r18,r18,32
   21a50:	bc400007 	ldb	r17,0(r23)
   21a54:	003d6006 	br	20fd8 <___svfprintf_internal_r+0x150>
   21a58:	d8c02d17 	ldw	r3,180(sp)
   21a5c:	d8002785 	stb	zero,158(sp)
   21a60:	1c000017 	ldw	r16,0(r3)
   21a64:	1d000104 	addi	r20,r3,4
   21a68:	80040f26 	beq	r16,zero,22aa8 <___svfprintf_internal_r+0x1c20>
   21a6c:	d9002917 	ldw	r4,164(sp)
   21a70:	2003dc16 	blt	r4,zero,229e4 <___svfprintf_internal_r+0x1b5c>
   21a74:	200d883a 	mov	r6,r4
   21a78:	000b883a 	mov	r5,zero
   21a7c:	8009883a 	mov	r4,r16
   21a80:	da003e15 	stw	r8,248(sp)
   21a84:	00288700 	call	28870 <memchr>
   21a88:	da003e17 	ldw	r8,248(sp)
   21a8c:	10045826 	beq	r2,zero,22bf0 <___svfprintf_internal_r+0x1d68>
   21a90:	1405c83a 	sub	r2,r2,r16
   21a94:	d8802e15 	stw	r2,184(sp)
   21a98:	1003d816 	blt	r2,zero,229fc <___svfprintf_internal_r+0x1b74>
   21a9c:	df002783 	ldbu	fp,158(sp)
   21aa0:	d8802a15 	stw	r2,168(sp)
   21aa4:	dd002d15 	stw	r20,180(sp)
   21aa8:	d8002915 	stw	zero,164(sp)
   21aac:	d8003215 	stw	zero,200(sp)
   21ab0:	003ea306 	br	21540 <___svfprintf_internal_r+0x6b8>
   21ab4:	18c03fcc 	andi	r3,r3,255
   21ab8:	183f8c26 	beq	r3,zero,218ec <___svfprintf_internal_r+0xa64>
   21abc:	d9c02785 	stb	r7,158(sp)
   21ac0:	003f8a06 	br	218ec <___svfprintf_internal_r+0xa64>
   21ac4:	18c03fcc 	andi	r3,r3,255
   21ac8:	1805631e 	bne	r3,zero,23058 <___svfprintf_internal_r+0x21d0>
   21acc:	014000f4 	movhi	r5,3
   21ad0:	294cfd04 	addi	r5,r5,13300
   21ad4:	d9403a15 	stw	r5,232(sp)
   21ad8:	9080080c 	andi	r2,r18,32
   21adc:	103f9f1e 	bne	r2,zero,2195c <___svfprintf_internal_r+0xad4>
   21ae0:	9080040c 	andi	r2,r18,16
   21ae4:	10029c26 	beq	r2,zero,22558 <___svfprintf_internal_r+0x16d0>
   21ae8:	d8c02d17 	ldw	r3,180(sp)
   21aec:	002d883a 	mov	r22,zero
   21af0:	1d000017 	ldw	r20,0(r3)
   21af4:	18c00104 	addi	r3,r3,4
   21af8:	d8c02d15 	stw	r3,180(sp)
   21afc:	003f9c06 	br	21970 <___svfprintf_internal_r+0xae8>
   21b00:	94800054 	ori	r18,r18,1
   21b04:	bc400007 	ldb	r17,0(r23)
   21b08:	003d3306 	br	20fd8 <___svfprintf_internal_r+0x150>
   21b0c:	38803fcc 	andi	r2,r7,255
   21b10:	1080201c 	xori	r2,r2,128
   21b14:	10bfe004 	addi	r2,r2,-128
   21b18:	1002971e 	bne	r2,zero,22578 <___svfprintf_internal_r+0x16f0>
   21b1c:	00c00044 	movi	r3,1
   21b20:	01c00804 	movi	r7,32
   21b24:	bc400007 	ldb	r17,0(r23)
   21b28:	003d2b06 	br	20fd8 <___svfprintf_internal_r+0x150>
   21b2c:	18c03fcc 	andi	r3,r3,255
   21b30:	183e2326 	beq	r3,zero,213c0 <___svfprintf_internal_r+0x538>
   21b34:	d9c02785 	stb	r7,158(sp)
   21b38:	003e2106 	br	213c0 <___svfprintf_internal_r+0x538>
   21b3c:	bc400007 	ldb	r17,0(r23)
   21b40:	8a430426 	beq	r17,r9,22754 <___svfprintf_internal_r+0x18cc>
   21b44:	94800414 	ori	r18,r18,16
   21b48:	003d2306 	br	20fd8 <___svfprintf_internal_r+0x150>
   21b4c:	18c03fcc 	andi	r3,r3,255
   21b50:	18053f1e 	bne	r3,zero,23050 <___svfprintf_internal_r+0x21c8>
   21b54:	9080080c 	andi	r2,r18,32
   21b58:	10028926 	beq	r2,zero,22580 <___svfprintf_internal_r+0x16f8>
   21b5c:	d9402d17 	ldw	r5,180(sp)
   21b60:	d9002f17 	ldw	r4,188(sp)
   21b64:	28800017 	ldw	r2,0(r5)
   21b68:	2007d7fa 	srai	r3,r4,31
   21b6c:	29400104 	addi	r5,r5,4
   21b70:	d9402d15 	stw	r5,180(sp)
   21b74:	11000015 	stw	r4,0(r2)
   21b78:	10c00115 	stw	r3,4(r2)
   21b7c:	003ced06 	br	20f34 <___svfprintf_internal_r+0xac>
   21b80:	94801014 	ori	r18,r18,64
   21b84:	bc400007 	ldb	r17,0(r23)
   21b88:	003d1306 	br	20fd8 <___svfprintf_internal_r+0x150>
   21b8c:	010000f4 	movhi	r4,3
   21b90:	210cfd04 	addi	r4,r4,13300
   21b94:	0039883a 	mov	fp,zero
   21b98:	d9003a15 	stw	r4,232(sp)
   21b9c:	04401e04 	movi	r17,120
   21ba0:	003f8206 	br	219ac <___svfprintf_internal_r+0xb24>
   21ba4:	18c03fcc 	andi	r3,r3,255
   21ba8:	1805221e 	bne	r3,zero,23034 <___svfprintf_internal_r+0x21ac>
   21bac:	883d9526 	beq	r17,zero,21204 <___svfprintf_internal_r+0x37c>
   21bb0:	00c00044 	movi	r3,1
   21bb4:	d8c02a15 	stw	r3,168(sp)
   21bb8:	dc401405 	stb	r17,80(sp)
   21bbc:	d8002785 	stb	zero,158(sp)
   21bc0:	003f9406 	br	21a14 <___svfprintf_internal_r+0xb8c>
   21bc4:	010000f4 	movhi	r4,3
   21bc8:	210cfd04 	addi	r4,r4,13300
   21bcc:	d9003a15 	stw	r4,232(sp)
   21bd0:	d8c02d15 	stw	r3,180(sp)
   21bd4:	1025883a 	mov	r18,r2
   21bd8:	04401e04 	movi	r17,120
   21bdc:	a584b03a 	or	r2,r20,r22
   21be0:	1000fa1e 	bne	r2,zero,21fcc <___svfprintf_internal_r+0x1144>
   21be4:	0039883a 	mov	fp,zero
   21be8:	00800084 	movi	r2,2
   21bec:	10803fcc 	andi	r2,r2,255
   21bf0:	00c00044 	movi	r3,1
   21bf4:	10c21626 	beq	r2,r3,22450 <___svfprintf_internal_r+0x15c8>
   21bf8:	00c00084 	movi	r3,2
   21bfc:	10fe301e 	bne	r2,r3,214c0 <___svfprintf_internal_r+0x638>
   21c00:	003d7606 	br	211dc <___svfprintf_internal_r+0x354>
   21c04:	d8c02017 	ldw	r3,128(sp)
   21c08:	003e9506 	br	21660 <___svfprintf_internal_r+0x7d8>
   21c0c:	00801944 	movi	r2,101
   21c10:	14407c0e 	bge	r2,r17,21e04 <___svfprintf_internal_r+0xf7c>
   21c14:	d9003617 	ldw	r4,216(sp)
   21c18:	d9403717 	ldw	r5,220(sp)
   21c1c:	000d883a 	mov	r6,zero
   21c20:	000f883a 	mov	r7,zero
   21c24:	d8c03d15 	stw	r3,244(sp)
   21c28:	da003e15 	stw	r8,248(sp)
   21c2c:	002f6e00 	call	2f6e0 <__eqdf2>
   21c30:	d8c03d17 	ldw	r3,244(sp)
   21c34:	da003e17 	ldw	r8,248(sp)
   21c38:	1000f51e 	bne	r2,zero,22010 <___svfprintf_internal_r+0x1188>
   21c3c:	d8801f17 	ldw	r2,124(sp)
   21c40:	010000f4 	movhi	r4,3
   21c44:	210d0404 	addi	r4,r4,13328
   21c48:	18c00044 	addi	r3,r3,1
   21c4c:	10800044 	addi	r2,r2,1
   21c50:	41000015 	stw	r4,0(r8)
   21c54:	01000044 	movi	r4,1
   21c58:	41000115 	stw	r4,4(r8)
   21c5c:	d8c02015 	stw	r3,128(sp)
   21c60:	d8801f15 	stw	r2,124(sp)
   21c64:	010001c4 	movi	r4,7
   21c68:	20826616 	blt	r4,r2,22604 <___svfprintf_internal_r+0x177c>
   21c6c:	42000204 	addi	r8,r8,8
   21c70:	d8802617 	ldw	r2,152(sp)
   21c74:	d9403317 	ldw	r5,204(sp)
   21c78:	11400216 	blt	r2,r5,21c84 <___svfprintf_internal_r+0xdfc>
   21c7c:	9080004c 	andi	r2,r18,1
   21c80:	103ed526 	beq	r2,zero,217d8 <___svfprintf_internal_r+0x950>
   21c84:	d8803817 	ldw	r2,224(sp)
   21c88:	d9003417 	ldw	r4,208(sp)
   21c8c:	d9403817 	ldw	r5,224(sp)
   21c90:	1887883a 	add	r3,r3,r2
   21c94:	d8801f17 	ldw	r2,124(sp)
   21c98:	41000015 	stw	r4,0(r8)
   21c9c:	41400115 	stw	r5,4(r8)
   21ca0:	10800044 	addi	r2,r2,1
   21ca4:	d8c02015 	stw	r3,128(sp)
   21ca8:	d8801f15 	stw	r2,124(sp)
   21cac:	010001c4 	movi	r4,7
   21cb0:	2082af16 	blt	r4,r2,22770 <___svfprintf_internal_r+0x18e8>
   21cb4:	42000204 	addi	r8,r8,8
   21cb8:	d8803317 	ldw	r2,204(sp)
   21cbc:	143fffc4 	addi	r16,r2,-1
   21cc0:	043ec50e 	bge	zero,r16,217d8 <___svfprintf_internal_r+0x950>
   21cc4:	04400404 	movi	r17,16
   21cc8:	d8801f17 	ldw	r2,124(sp)
   21ccc:	8c00860e 	bge	r17,r16,21ee8 <___svfprintf_internal_r+0x1060>
   21cd0:	014000f4 	movhi	r5,3
   21cd4:	294d0484 	addi	r5,r5,13330
   21cd8:	d9402b15 	stw	r5,172(sp)
   21cdc:	058001c4 	movi	r22,7
   21ce0:	dd002c17 	ldw	r20,176(sp)
   21ce4:	00000306 	br	21cf4 <___svfprintf_internal_r+0xe6c>
   21ce8:	42000204 	addi	r8,r8,8
   21cec:	843ffc04 	addi	r16,r16,-16
   21cf0:	8c00800e 	bge	r17,r16,21ef4 <___svfprintf_internal_r+0x106c>
   21cf4:	18c00404 	addi	r3,r3,16
   21cf8:	10800044 	addi	r2,r2,1
   21cfc:	45400015 	stw	r21,0(r8)
   21d00:	44400115 	stw	r17,4(r8)
   21d04:	d8c02015 	stw	r3,128(sp)
   21d08:	d8801f15 	stw	r2,124(sp)
   21d0c:	b0bff60e 	bge	r22,r2,21ce8 <___svfprintf_internal_r+0xe60>
   21d10:	d9801e04 	addi	r6,sp,120
   21d14:	a00b883a 	mov	r5,r20
   21d18:	9809883a 	mov	r4,r19
   21d1c:	002a5600 	call	2a560 <__ssprint_r>
   21d20:	103d3e1e 	bne	r2,zero,2121c <___svfprintf_internal_r+0x394>
   21d24:	d8c02017 	ldw	r3,128(sp)
   21d28:	d8801f17 	ldw	r2,124(sp)
   21d2c:	da000404 	addi	r8,sp,16
   21d30:	003fee06 	br	21cec <___svfprintf_internal_r+0xe64>
   21d34:	d9403117 	ldw	r5,196(sp)
   21d38:	d8802a17 	ldw	r2,168(sp)
   21d3c:	28adc83a 	sub	r22,r5,r2
   21d40:	05be650e 	bge	zero,r22,216d8 <___svfprintf_internal_r+0x850>
   21d44:	07000404 	movi	fp,16
   21d48:	d8801f17 	ldw	r2,124(sp)
   21d4c:	e583a20e 	bge	fp,r22,22bd8 <___svfprintf_internal_r+0x1d50>
   21d50:	014000f4 	movhi	r5,3
   21d54:	294d0484 	addi	r5,r5,13330
   21d58:	dc403015 	stw	r17,192(sp)
   21d5c:	d9402b15 	stw	r5,172(sp)
   21d60:	b023883a 	mov	r17,r22
   21d64:	050001c4 	movi	r20,7
   21d68:	902d883a 	mov	r22,r18
   21d6c:	8025883a 	mov	r18,r16
   21d70:	dc002c17 	ldw	r16,176(sp)
   21d74:	00000306 	br	21d84 <___svfprintf_internal_r+0xefc>
   21d78:	8c7ffc04 	addi	r17,r17,-16
   21d7c:	42000204 	addi	r8,r8,8
   21d80:	e440110e 	bge	fp,r17,21dc8 <___svfprintf_internal_r+0xf40>
   21d84:	18c00404 	addi	r3,r3,16
   21d88:	10800044 	addi	r2,r2,1
   21d8c:	45400015 	stw	r21,0(r8)
   21d90:	47000115 	stw	fp,4(r8)
   21d94:	d8c02015 	stw	r3,128(sp)
   21d98:	d8801f15 	stw	r2,124(sp)
   21d9c:	a0bff60e 	bge	r20,r2,21d78 <___svfprintf_internal_r+0xef0>
   21da0:	d9801e04 	addi	r6,sp,120
   21da4:	800b883a 	mov	r5,r16
   21da8:	9809883a 	mov	r4,r19
   21dac:	002a5600 	call	2a560 <__ssprint_r>
   21db0:	103d1a1e 	bne	r2,zero,2121c <___svfprintf_internal_r+0x394>
   21db4:	8c7ffc04 	addi	r17,r17,-16
   21db8:	d8c02017 	ldw	r3,128(sp)
   21dbc:	d8801f17 	ldw	r2,124(sp)
   21dc0:	da000404 	addi	r8,sp,16
   21dc4:	e47fef16 	blt	fp,r17,21d84 <___svfprintf_internal_r+0xefc>
   21dc8:	9021883a 	mov	r16,r18
   21dcc:	b025883a 	mov	r18,r22
   21dd0:	882d883a 	mov	r22,r17
   21dd4:	dc403017 	ldw	r17,192(sp)
   21dd8:	d9002b17 	ldw	r4,172(sp)
   21ddc:	1d87883a 	add	r3,r3,r22
   21de0:	10800044 	addi	r2,r2,1
   21de4:	41000015 	stw	r4,0(r8)
   21de8:	45800115 	stw	r22,4(r8)
   21dec:	d8c02015 	stw	r3,128(sp)
   21df0:	d8801f15 	stw	r2,124(sp)
   21df4:	010001c4 	movi	r4,7
   21df8:	20819a16 	blt	r4,r2,22464 <___svfprintf_internal_r+0x15dc>
   21dfc:	42000204 	addi	r8,r8,8
   21e00:	003e3506 	br	216d8 <___svfprintf_internal_r+0x850>
   21e04:	d9403317 	ldw	r5,204(sp)
   21e08:	00800044 	movi	r2,1
   21e0c:	18c00044 	addi	r3,r3,1
   21e10:	1141710e 	bge	r2,r5,223d8 <___svfprintf_internal_r+0x1550>
   21e14:	dc401f17 	ldw	r17,124(sp)
   21e18:	00800044 	movi	r2,1
   21e1c:	40800115 	stw	r2,4(r8)
   21e20:	8c400044 	addi	r17,r17,1
   21e24:	44000015 	stw	r16,0(r8)
   21e28:	d8c02015 	stw	r3,128(sp)
   21e2c:	dc401f15 	stw	r17,124(sp)
   21e30:	008001c4 	movi	r2,7
   21e34:	14417416 	blt	r2,r17,22408 <___svfprintf_internal_r+0x1580>
   21e38:	42000204 	addi	r8,r8,8
   21e3c:	d8803817 	ldw	r2,224(sp)
   21e40:	d9003417 	ldw	r4,208(sp)
   21e44:	8c400044 	addi	r17,r17,1
   21e48:	10c7883a 	add	r3,r2,r3
   21e4c:	40800115 	stw	r2,4(r8)
   21e50:	41000015 	stw	r4,0(r8)
   21e54:	d8c02015 	stw	r3,128(sp)
   21e58:	dc401f15 	stw	r17,124(sp)
   21e5c:	008001c4 	movi	r2,7
   21e60:	14417216 	blt	r2,r17,2242c <___svfprintf_internal_r+0x15a4>
   21e64:	45800204 	addi	r22,r8,8
   21e68:	d9003617 	ldw	r4,216(sp)
   21e6c:	d9403717 	ldw	r5,220(sp)
   21e70:	000d883a 	mov	r6,zero
   21e74:	000f883a 	mov	r7,zero
   21e78:	d8c03d15 	stw	r3,244(sp)
   21e7c:	002f6e00 	call	2f6e0 <__eqdf2>
   21e80:	d8c03d17 	ldw	r3,244(sp)
   21e84:	1000b326 	beq	r2,zero,22154 <___svfprintf_internal_r+0x12cc>
   21e88:	d9403317 	ldw	r5,204(sp)
   21e8c:	84000044 	addi	r16,r16,1
   21e90:	8c400044 	addi	r17,r17,1
   21e94:	28bfffc4 	addi	r2,r5,-1
   21e98:	1887883a 	add	r3,r3,r2
   21e9c:	b0800115 	stw	r2,4(r22)
   21ea0:	b4000015 	stw	r16,0(r22)
   21ea4:	d8c02015 	stw	r3,128(sp)
   21ea8:	dc401f15 	stw	r17,124(sp)
   21eac:	008001c4 	movi	r2,7
   21eb0:	1440d216 	blt	r2,r17,221fc <___svfprintf_internal_r+0x1374>
   21eb4:	b5800204 	addi	r22,r22,8
   21eb8:	d9003b17 	ldw	r4,236(sp)
   21ebc:	df0022c4 	addi	fp,sp,139
   21ec0:	8c400044 	addi	r17,r17,1
   21ec4:	20c7883a 	add	r3,r4,r3
   21ec8:	b7000015 	stw	fp,0(r22)
   21ecc:	b1000115 	stw	r4,4(r22)
   21ed0:	d8c02015 	stw	r3,128(sp)
   21ed4:	dc401f15 	stw	r17,124(sp)
   21ed8:	008001c4 	movi	r2,7
   21edc:	14400e16 	blt	r2,r17,21f18 <___svfprintf_internal_r+0x1090>
   21ee0:	b2000204 	addi	r8,r22,8
   21ee4:	003e3c06 	br	217d8 <___svfprintf_internal_r+0x950>
   21ee8:	010000f4 	movhi	r4,3
   21eec:	210d0484 	addi	r4,r4,13330
   21ef0:	d9002b15 	stw	r4,172(sp)
   21ef4:	d9002b17 	ldw	r4,172(sp)
   21ef8:	1c07883a 	add	r3,r3,r16
   21efc:	44000115 	stw	r16,4(r8)
   21f00:	41000015 	stw	r4,0(r8)
   21f04:	10800044 	addi	r2,r2,1
   21f08:	d8c02015 	stw	r3,128(sp)
   21f0c:	d8801f15 	stw	r2,124(sp)
   21f10:	010001c4 	movi	r4,7
   21f14:	20be2f0e 	bge	r4,r2,217d4 <___svfprintf_internal_r+0x94c>
   21f18:	d9402c17 	ldw	r5,176(sp)
   21f1c:	d9801e04 	addi	r6,sp,120
   21f20:	9809883a 	mov	r4,r19
   21f24:	002a5600 	call	2a560 <__ssprint_r>
   21f28:	103cbc1e 	bne	r2,zero,2121c <___svfprintf_internal_r+0x394>
   21f2c:	d8c02017 	ldw	r3,128(sp)
   21f30:	da000404 	addi	r8,sp,16
   21f34:	003e2806 	br	217d8 <___svfprintf_internal_r+0x950>
   21f38:	d9402c17 	ldw	r5,176(sp)
   21f3c:	d9801e04 	addi	r6,sp,120
   21f40:	9809883a 	mov	r4,r19
   21f44:	002a5600 	call	2a560 <__ssprint_r>
   21f48:	103e5f26 	beq	r2,zero,218c8 <___svfprintf_internal_r+0xa40>
   21f4c:	003cb306 	br	2121c <___svfprintf_internal_r+0x394>
   21f50:	d9402c17 	ldw	r5,176(sp)
   21f54:	d9801e04 	addi	r6,sp,120
   21f58:	9809883a 	mov	r4,r19
   21f5c:	002a5600 	call	2a560 <__ssprint_r>
   21f60:	103cae1e 	bne	r2,zero,2121c <___svfprintf_internal_r+0x394>
   21f64:	d8c02017 	ldw	r3,128(sp)
   21f68:	da000404 	addi	r8,sp,16
   21f6c:	003e0d06 	br	217a4 <___svfprintf_internal_r+0x91c>
   21f70:	d9402c17 	ldw	r5,176(sp)
   21f74:	d9801e04 	addi	r6,sp,120
   21f78:	9809883a 	mov	r4,r19
   21f7c:	002a5600 	call	2a560 <__ssprint_r>
   21f80:	103ca61e 	bne	r2,zero,2121c <___svfprintf_internal_r+0x394>
   21f84:	d8c02017 	ldw	r3,128(sp)
   21f88:	da000404 	addi	r8,sp,16
   21f8c:	003dc106 	br	21694 <___svfprintf_internal_r+0x80c>
   21f90:	d9402c17 	ldw	r5,176(sp)
   21f94:	d9801e04 	addi	r6,sp,120
   21f98:	9809883a 	mov	r4,r19
   21f9c:	002a5600 	call	2a560 <__ssprint_r>
   21fa0:	103c9e1e 	bne	r2,zero,2121c <___svfprintf_internal_r+0x394>
   21fa4:	d8c02017 	ldw	r3,128(sp)
   21fa8:	da000404 	addi	r8,sp,16
   21fac:	003dc706 	br	216cc <___svfprintf_internal_r+0x844>
   21fb0:	d8802917 	ldw	r2,164(sp)
   21fb4:	d8002785 	stb	zero,158(sp)
   21fb8:	103f0816 	blt	r2,zero,21bdc <___svfprintf_internal_r+0xd54>
   21fbc:	00ffdfc4 	movi	r3,-129
   21fc0:	a584b03a 	or	r2,r20,r22
   21fc4:	90e4703a 	and	r18,r18,r3
   21fc8:	103c8126 	beq	r2,zero,211d0 <___svfprintf_internal_r+0x348>
   21fcc:	0039883a 	mov	fp,zero
   21fd0:	003e7606 	br	219ac <___svfprintf_internal_r+0xb24>
   21fd4:	9080040c 	andi	r2,r18,16
   21fd8:	10013d26 	beq	r2,zero,224d0 <___svfprintf_internal_r+0x1648>
   21fdc:	d9002d17 	ldw	r4,180(sp)
   21fe0:	d9402917 	ldw	r5,164(sp)
   21fe4:	d8002785 	stb	zero,158(sp)
   21fe8:	20800104 	addi	r2,r4,4
   21fec:	25000017 	ldw	r20,0(r4)
   21ff0:	002d883a 	mov	r22,zero
   21ff4:	28013f16 	blt	r5,zero,224f4 <___svfprintf_internal_r+0x166c>
   21ff8:	00ffdfc4 	movi	r3,-129
   21ffc:	d8802d15 	stw	r2,180(sp)
   22000:	90e4703a 	and	r18,r18,r3
   22004:	a03d2b26 	beq	r20,zero,214b4 <___svfprintf_internal_r+0x62c>
   22008:	0039883a 	mov	fp,zero
   2200c:	003d2e06 	br	214c8 <___svfprintf_internal_r+0x640>
   22010:	dc402617 	ldw	r17,152(sp)
   22014:	0441830e 	bge	zero,r17,22624 <___svfprintf_internal_r+0x179c>
   22018:	dc403217 	ldw	r17,200(sp)
   2201c:	d8803317 	ldw	r2,204(sp)
   22020:	1440010e 	bge	r2,r17,22028 <___svfprintf_internal_r+0x11a0>
   22024:	1023883a 	mov	r17,r2
   22028:	04400a0e 	bge	zero,r17,22054 <___svfprintf_internal_r+0x11cc>
   2202c:	d8801f17 	ldw	r2,124(sp)
   22030:	1c47883a 	add	r3,r3,r17
   22034:	44000015 	stw	r16,0(r8)
   22038:	10800044 	addi	r2,r2,1
   2203c:	44400115 	stw	r17,4(r8)
   22040:	d8c02015 	stw	r3,128(sp)
   22044:	d8801f15 	stw	r2,124(sp)
   22048:	010001c4 	movi	r4,7
   2204c:	20827516 	blt	r4,r2,22a24 <___svfprintf_internal_r+0x1b9c>
   22050:	42000204 	addi	r8,r8,8
   22054:	88027b16 	blt	r17,zero,22a44 <___svfprintf_internal_r+0x1bbc>
   22058:	d9003217 	ldw	r4,200(sp)
   2205c:	2463c83a 	sub	r17,r4,r17
   22060:	0440990e 	bge	zero,r17,222c8 <___svfprintf_internal_r+0x1440>
   22064:	05800404 	movi	r22,16
   22068:	d8801f17 	ldw	r2,124(sp)
   2206c:	b441530e 	bge	r22,r17,225bc <___svfprintf_internal_r+0x1734>
   22070:	010000f4 	movhi	r4,3
   22074:	210d0484 	addi	r4,r4,13330
   22078:	d9002b15 	stw	r4,172(sp)
   2207c:	070001c4 	movi	fp,7
   22080:	dd002c17 	ldw	r20,176(sp)
   22084:	00000306 	br	22094 <___svfprintf_internal_r+0x120c>
   22088:	42000204 	addi	r8,r8,8
   2208c:	8c7ffc04 	addi	r17,r17,-16
   22090:	b4414d0e 	bge	r22,r17,225c8 <___svfprintf_internal_r+0x1740>
   22094:	18c00404 	addi	r3,r3,16
   22098:	10800044 	addi	r2,r2,1
   2209c:	45400015 	stw	r21,0(r8)
   220a0:	45800115 	stw	r22,4(r8)
   220a4:	d8c02015 	stw	r3,128(sp)
   220a8:	d8801f15 	stw	r2,124(sp)
   220ac:	e0bff60e 	bge	fp,r2,22088 <___svfprintf_internal_r+0x1200>
   220b0:	d9801e04 	addi	r6,sp,120
   220b4:	a00b883a 	mov	r5,r20
   220b8:	9809883a 	mov	r4,r19
   220bc:	002a5600 	call	2a560 <__ssprint_r>
   220c0:	103c561e 	bne	r2,zero,2121c <___svfprintf_internal_r+0x394>
   220c4:	d8c02017 	ldw	r3,128(sp)
   220c8:	d8801f17 	ldw	r2,124(sp)
   220cc:	da000404 	addi	r8,sp,16
   220d0:	003fee06 	br	2208c <___svfprintf_internal_r+0x1204>
   220d4:	d9402c17 	ldw	r5,176(sp)
   220d8:	d9801e04 	addi	r6,sp,120
   220dc:	9809883a 	mov	r4,r19
   220e0:	002a5600 	call	2a560 <__ssprint_r>
   220e4:	103c4d1e 	bne	r2,zero,2121c <___svfprintf_internal_r+0x394>
   220e8:	d8c02017 	ldw	r3,128(sp)
   220ec:	df002787 	ldb	fp,158(sp)
   220f0:	da000404 	addi	r8,sp,16
   220f4:	003d5a06 	br	21660 <___svfprintf_internal_r+0x7d8>
   220f8:	9080040c 	andi	r2,r18,16
   220fc:	10005c26 	beq	r2,zero,22270 <___svfprintf_internal_r+0x13e8>
   22100:	d9402d17 	ldw	r5,180(sp)
   22104:	d8c02917 	ldw	r3,164(sp)
   22108:	d8002785 	stb	zero,158(sp)
   2210c:	28800104 	addi	r2,r5,4
   22110:	2d000017 	ldw	r20,0(r5)
   22114:	002d883a 	mov	r22,zero
   22118:	18005e16 	blt	r3,zero,22294 <___svfprintf_internal_r+0x140c>
   2211c:	00ffdfc4 	movi	r3,-129
   22120:	d8802d15 	stw	r2,180(sp)
   22124:	90e4703a 	and	r18,r18,r3
   22128:	0039883a 	mov	fp,zero
   2212c:	a03dfe26 	beq	r20,zero,21928 <___svfprintf_internal_r+0xaa0>
   22130:	00800244 	movi	r2,9
   22134:	153cb336 	bltu	r2,r20,21404 <___svfprintf_internal_r+0x57c>
   22138:	a5000c04 	addi	r20,r20,48
   2213c:	dc001dc4 	addi	r16,sp,119
   22140:	dd001dc5 	stb	r20,119(sp)
   22144:	d8c02817 	ldw	r3,160(sp)
   22148:	1c07c83a 	sub	r3,r3,r16
   2214c:	d8c02e15 	stw	r3,184(sp)
   22150:	003cf506 	br	21528 <___svfprintf_internal_r+0x6a0>
   22154:	d8803317 	ldw	r2,204(sp)
   22158:	143fffc4 	addi	r16,r2,-1
   2215c:	043f560e 	bge	zero,r16,21eb8 <___svfprintf_internal_r+0x1030>
   22160:	07000404 	movi	fp,16
   22164:	e403530e 	bge	fp,r16,22eb4 <___svfprintf_internal_r+0x202c>
   22168:	014000f4 	movhi	r5,3
   2216c:	294d0484 	addi	r5,r5,13330
   22170:	d9402b15 	stw	r5,172(sp)
   22174:	01c001c4 	movi	r7,7
   22178:	dd002c17 	ldw	r20,176(sp)
   2217c:	00000306 	br	2218c <___svfprintf_internal_r+0x1304>
   22180:	843ffc04 	addi	r16,r16,-16
   22184:	b5800204 	addi	r22,r22,8
   22188:	e400130e 	bge	fp,r16,221d8 <___svfprintf_internal_r+0x1350>
   2218c:	18c00404 	addi	r3,r3,16
   22190:	8c400044 	addi	r17,r17,1
   22194:	b5400015 	stw	r21,0(r22)
   22198:	b7000115 	stw	fp,4(r22)
   2219c:	d8c02015 	stw	r3,128(sp)
   221a0:	dc401f15 	stw	r17,124(sp)
   221a4:	3c7ff60e 	bge	r7,r17,22180 <___svfprintf_internal_r+0x12f8>
   221a8:	d9801e04 	addi	r6,sp,120
   221ac:	a00b883a 	mov	r5,r20
   221b0:	9809883a 	mov	r4,r19
   221b4:	d9c03d15 	stw	r7,244(sp)
   221b8:	002a5600 	call	2a560 <__ssprint_r>
   221bc:	d9c03d17 	ldw	r7,244(sp)
   221c0:	103c161e 	bne	r2,zero,2121c <___svfprintf_internal_r+0x394>
   221c4:	843ffc04 	addi	r16,r16,-16
   221c8:	d8c02017 	ldw	r3,128(sp)
   221cc:	dc401f17 	ldw	r17,124(sp)
   221d0:	dd800404 	addi	r22,sp,16
   221d4:	e43fed16 	blt	fp,r16,2218c <___svfprintf_internal_r+0x1304>
   221d8:	d8802b17 	ldw	r2,172(sp)
   221dc:	1c07883a 	add	r3,r3,r16
   221e0:	8c400044 	addi	r17,r17,1
   221e4:	b0800015 	stw	r2,0(r22)
   221e8:	b4000115 	stw	r16,4(r22)
   221ec:	d8c02015 	stw	r3,128(sp)
   221f0:	dc401f15 	stw	r17,124(sp)
   221f4:	008001c4 	movi	r2,7
   221f8:	147f2e0e 	bge	r2,r17,21eb4 <___svfprintf_internal_r+0x102c>
   221fc:	d9402c17 	ldw	r5,176(sp)
   22200:	d9801e04 	addi	r6,sp,120
   22204:	9809883a 	mov	r4,r19
   22208:	002a5600 	call	2a560 <__ssprint_r>
   2220c:	103c031e 	bne	r2,zero,2121c <___svfprintf_internal_r+0x394>
   22210:	d8c02017 	ldw	r3,128(sp)
   22214:	dc401f17 	ldw	r17,124(sp)
   22218:	dd800404 	addi	r22,sp,16
   2221c:	003f2606 	br	21eb8 <___svfprintf_internal_r+0x1030>
   22220:	9080040c 	andi	r2,r18,16
   22224:	1000c326 	beq	r2,zero,22534 <___svfprintf_internal_r+0x16ac>
   22228:	d8802d17 	ldw	r2,180(sp)
   2222c:	15000017 	ldw	r20,0(r2)
   22230:	10800104 	addi	r2,r2,4
   22234:	d8802d15 	stw	r2,180(sp)
   22238:	a02dd7fa 	srai	r22,r20,31
   2223c:	b005883a 	mov	r2,r22
   22240:	103c680e 	bge	r2,zero,213e4 <___svfprintf_internal_r+0x55c>
   22244:	0529c83a 	sub	r20,zero,r20
   22248:	a004c03a 	cmpne	r2,r20,zero
   2224c:	05adc83a 	sub	r22,zero,r22
   22250:	b0adc83a 	sub	r22,r22,r2
   22254:	d8802917 	ldw	r2,164(sp)
   22258:	07000b44 	movi	fp,45
   2225c:	df002785 	stb	fp,158(sp)
   22260:	10022e16 	blt	r2,zero,22b1c <___svfprintf_internal_r+0x1c94>
   22264:	00bfdfc4 	movi	r2,-129
   22268:	90a4703a 	and	r18,r18,r2
   2226c:	003c6406 	br	21400 <___svfprintf_internal_r+0x578>
   22270:	9080100c 	andi	r2,r18,64
   22274:	d8002785 	stb	zero,158(sp)
   22278:	10012526 	beq	r2,zero,22710 <___svfprintf_internal_r+0x1888>
   2227c:	d9002d17 	ldw	r4,180(sp)
   22280:	d9402917 	ldw	r5,164(sp)
   22284:	002d883a 	mov	r22,zero
   22288:	20800104 	addi	r2,r4,4
   2228c:	2500000b 	ldhu	r20,0(r4)
   22290:	283fa20e 	bge	r5,zero,2211c <___svfprintf_internal_r+0x1294>
   22294:	d8802d15 	stw	r2,180(sp)
   22298:	0039883a 	mov	fp,zero
   2229c:	a584b03a 	or	r2,r20,r22
   222a0:	103c571e 	bne	r2,zero,21400 <___svfprintf_internal_r+0x578>
   222a4:	00800044 	movi	r2,1
   222a8:	003e5006 	br	21bec <___svfprintf_internal_r+0xd64>
   222ac:	d9402c17 	ldw	r5,176(sp)
   222b0:	d9801e04 	addi	r6,sp,120
   222b4:	9809883a 	mov	r4,r19
   222b8:	002a5600 	call	2a560 <__ssprint_r>
   222bc:	103bd71e 	bne	r2,zero,2121c <___svfprintf_internal_r+0x394>
   222c0:	d8c02017 	ldw	r3,128(sp)
   222c4:	da000404 	addi	r8,sp,16
   222c8:	d9003217 	ldw	r4,200(sp)
   222cc:	d8802617 	ldw	r2,152(sp)
   222d0:	d9403317 	ldw	r5,204(sp)
   222d4:	8123883a 	add	r17,r16,r4
   222d8:	11400216 	blt	r2,r5,222e4 <___svfprintf_internal_r+0x145c>
   222dc:	9100004c 	andi	r4,r18,1
   222e0:	20000d26 	beq	r4,zero,22318 <___svfprintf_internal_r+0x1490>
   222e4:	d9003817 	ldw	r4,224(sp)
   222e8:	d9403417 	ldw	r5,208(sp)
   222ec:	1907883a 	add	r3,r3,r4
   222f0:	d9001f17 	ldw	r4,124(sp)
   222f4:	41400015 	stw	r5,0(r8)
   222f8:	d9403817 	ldw	r5,224(sp)
   222fc:	21000044 	addi	r4,r4,1
   22300:	d8c02015 	stw	r3,128(sp)
   22304:	41400115 	stw	r5,4(r8)
   22308:	d9001f15 	stw	r4,124(sp)
   2230c:	014001c4 	movi	r5,7
   22310:	2901dc16 	blt	r5,r4,22a84 <___svfprintf_internal_r+0x1bfc>
   22314:	42000204 	addi	r8,r8,8
   22318:	d9003317 	ldw	r4,204(sp)
   2231c:	8121883a 	add	r16,r16,r4
   22320:	2085c83a 	sub	r2,r4,r2
   22324:	8461c83a 	sub	r16,r16,r17
   22328:	1400010e 	bge	r2,r16,22330 <___svfprintf_internal_r+0x14a8>
   2232c:	1021883a 	mov	r16,r2
   22330:	04000a0e 	bge	zero,r16,2235c <___svfprintf_internal_r+0x14d4>
   22334:	d9001f17 	ldw	r4,124(sp)
   22338:	1c07883a 	add	r3,r3,r16
   2233c:	44400015 	stw	r17,0(r8)
   22340:	21000044 	addi	r4,r4,1
   22344:	44000115 	stw	r16,4(r8)
   22348:	d8c02015 	stw	r3,128(sp)
   2234c:	d9001f15 	stw	r4,124(sp)
   22350:	014001c4 	movi	r5,7
   22354:	2901e616 	blt	r5,r4,22af0 <___svfprintf_internal_r+0x1c68>
   22358:	42000204 	addi	r8,r8,8
   2235c:	8001f616 	blt	r16,zero,22b38 <___svfprintf_internal_r+0x1cb0>
   22360:	1421c83a 	sub	r16,r2,r16
   22364:	043d1c0e 	bge	zero,r16,217d8 <___svfprintf_internal_r+0x950>
   22368:	04400404 	movi	r17,16
   2236c:	d8801f17 	ldw	r2,124(sp)
   22370:	8c3edd0e 	bge	r17,r16,21ee8 <___svfprintf_internal_r+0x1060>
   22374:	014000f4 	movhi	r5,3
   22378:	294d0484 	addi	r5,r5,13330
   2237c:	d9402b15 	stw	r5,172(sp)
   22380:	058001c4 	movi	r22,7
   22384:	dd002c17 	ldw	r20,176(sp)
   22388:	00000306 	br	22398 <___svfprintf_internal_r+0x1510>
   2238c:	42000204 	addi	r8,r8,8
   22390:	843ffc04 	addi	r16,r16,-16
   22394:	8c3ed70e 	bge	r17,r16,21ef4 <___svfprintf_internal_r+0x106c>
   22398:	18c00404 	addi	r3,r3,16
   2239c:	10800044 	addi	r2,r2,1
   223a0:	45400015 	stw	r21,0(r8)
   223a4:	44400115 	stw	r17,4(r8)
   223a8:	d8c02015 	stw	r3,128(sp)
   223ac:	d8801f15 	stw	r2,124(sp)
   223b0:	b0bff60e 	bge	r22,r2,2238c <___svfprintf_internal_r+0x1504>
   223b4:	d9801e04 	addi	r6,sp,120
   223b8:	a00b883a 	mov	r5,r20
   223bc:	9809883a 	mov	r4,r19
   223c0:	002a5600 	call	2a560 <__ssprint_r>
   223c4:	103b951e 	bne	r2,zero,2121c <___svfprintf_internal_r+0x394>
   223c8:	d8c02017 	ldw	r3,128(sp)
   223cc:	d8801f17 	ldw	r2,124(sp)
   223d0:	da000404 	addi	r8,sp,16
   223d4:	003fee06 	br	22390 <___svfprintf_internal_r+0x1508>
   223d8:	9088703a 	and	r4,r18,r2
   223dc:	203e8d1e 	bne	r4,zero,21e14 <___svfprintf_internal_r+0xf8c>
   223e0:	dc401f17 	ldw	r17,124(sp)
   223e4:	40800115 	stw	r2,4(r8)
   223e8:	44000015 	stw	r16,0(r8)
   223ec:	8c400044 	addi	r17,r17,1
   223f0:	d8c02015 	stw	r3,128(sp)
   223f4:	dc401f15 	stw	r17,124(sp)
   223f8:	008001c4 	movi	r2,7
   223fc:	147f7f16 	blt	r2,r17,221fc <___svfprintf_internal_r+0x1374>
   22400:	45800204 	addi	r22,r8,8
   22404:	003eac06 	br	21eb8 <___svfprintf_internal_r+0x1030>
   22408:	d9402c17 	ldw	r5,176(sp)
   2240c:	d9801e04 	addi	r6,sp,120
   22410:	9809883a 	mov	r4,r19
   22414:	002a5600 	call	2a560 <__ssprint_r>
   22418:	103b801e 	bne	r2,zero,2121c <___svfprintf_internal_r+0x394>
   2241c:	d8c02017 	ldw	r3,128(sp)
   22420:	dc401f17 	ldw	r17,124(sp)
   22424:	da000404 	addi	r8,sp,16
   22428:	003e8406 	br	21e3c <___svfprintf_internal_r+0xfb4>
   2242c:	d9402c17 	ldw	r5,176(sp)
   22430:	d9801e04 	addi	r6,sp,120
   22434:	9809883a 	mov	r4,r19
   22438:	002a5600 	call	2a560 <__ssprint_r>
   2243c:	103b771e 	bne	r2,zero,2121c <___svfprintf_internal_r+0x394>
   22440:	d8c02017 	ldw	r3,128(sp)
   22444:	dc401f17 	ldw	r17,124(sp)
   22448:	dd800404 	addi	r22,sp,16
   2244c:	003e8606 	br	21e68 <___svfprintf_internal_r+0xfe0>
   22450:	0029883a 	mov	r20,zero
   22454:	a5000c04 	addi	r20,r20,48
   22458:	dc001dc4 	addi	r16,sp,119
   2245c:	dd001dc5 	stb	r20,119(sp)
   22460:	003f3806 	br	22144 <___svfprintf_internal_r+0x12bc>
   22464:	d9402c17 	ldw	r5,176(sp)
   22468:	d9801e04 	addi	r6,sp,120
   2246c:	9809883a 	mov	r4,r19
   22470:	002a5600 	call	2a560 <__ssprint_r>
   22474:	103b691e 	bne	r2,zero,2121c <___svfprintf_internal_r+0x394>
   22478:	d8c02017 	ldw	r3,128(sp)
   2247c:	da000404 	addi	r8,sp,16
   22480:	003c9506 	br	216d8 <___svfprintf_internal_r+0x850>
   22484:	d9003617 	ldw	r4,216(sp)
   22488:	d9403717 	ldw	r5,220(sp)
   2248c:	da003e15 	stw	r8,248(sp)
   22490:	002a2800 	call	2a280 <__fpclassifyd>
   22494:	da003e17 	ldw	r8,248(sp)
   22498:	1000bd1e 	bne	r2,zero,22790 <___svfprintf_internal_r+0x1908>
   2249c:	008011c4 	movi	r2,71
   224a0:	14411e0e 	bge	r2,r17,2291c <___svfprintf_internal_r+0x1a94>
   224a4:	040000f4 	movhi	r16,3
   224a8:	840cf704 	addi	r16,r16,13276
   224ac:	00c000c4 	movi	r3,3
   224b0:	00bfdfc4 	movi	r2,-129
   224b4:	d8c02a15 	stw	r3,168(sp)
   224b8:	90a4703a 	and	r18,r18,r2
   224bc:	df002783 	ldbu	fp,158(sp)
   224c0:	d8c02e15 	stw	r3,184(sp)
   224c4:	d8002915 	stw	zero,164(sp)
   224c8:	d8003215 	stw	zero,200(sp)
   224cc:	003c1c06 	br	21540 <___svfprintf_internal_r+0x6b8>
   224d0:	9080100c 	andi	r2,r18,64
   224d4:	d8002785 	stb	zero,158(sp)
   224d8:	10009426 	beq	r2,zero,2272c <___svfprintf_internal_r+0x18a4>
   224dc:	d8c02d17 	ldw	r3,180(sp)
   224e0:	d9002917 	ldw	r4,164(sp)
   224e4:	002d883a 	mov	r22,zero
   224e8:	18800104 	addi	r2,r3,4
   224ec:	1d00000b 	ldhu	r20,0(r3)
   224f0:	203ec10e 	bge	r4,zero,21ff8 <___svfprintf_internal_r+0x1170>
   224f4:	a586b03a 	or	r3,r20,r22
   224f8:	d8802d15 	stw	r2,180(sp)
   224fc:	183ec21e 	bne	r3,zero,22008 <___svfprintf_internal_r+0x1180>
   22500:	0039883a 	mov	fp,zero
   22504:	0005883a 	mov	r2,zero
   22508:	003db806 	br	21bec <___svfprintf_internal_r+0xd64>
   2250c:	d8802d17 	ldw	r2,180(sp)
   22510:	d8c02d17 	ldw	r3,180(sp)
   22514:	d9002d17 	ldw	r4,180(sp)
   22518:	10800017 	ldw	r2,0(r2)
   2251c:	18c00117 	ldw	r3,4(r3)
   22520:	21000204 	addi	r4,r4,8
   22524:	d8803615 	stw	r2,216(sp)
   22528:	d8c03715 	stw	r3,220(sp)
   2252c:	d9002d15 	stw	r4,180(sp)
   22530:	003b8206 	br	2133c <___svfprintf_internal_r+0x4b4>
   22534:	9080100c 	andi	r2,r18,64
   22538:	10010726 	beq	r2,zero,22958 <___svfprintf_internal_r+0x1ad0>
   2253c:	d8c02d17 	ldw	r3,180(sp)
   22540:	1d00000f 	ldh	r20,0(r3)
   22544:	18c00104 	addi	r3,r3,4
   22548:	d8c02d15 	stw	r3,180(sp)
   2254c:	a02dd7fa 	srai	r22,r20,31
   22550:	b005883a 	mov	r2,r22
   22554:	003ba206 	br	213e0 <___svfprintf_internal_r+0x558>
   22558:	9080100c 	andi	r2,r18,64
   2255c:	10010526 	beq	r2,zero,22974 <___svfprintf_internal_r+0x1aec>
   22560:	d9002d17 	ldw	r4,180(sp)
   22564:	002d883a 	mov	r22,zero
   22568:	2500000b 	ldhu	r20,0(r4)
   2256c:	21000104 	addi	r4,r4,4
   22570:	d9002d15 	stw	r4,180(sp)
   22574:	003cfe06 	br	21970 <___svfprintf_internal_r+0xae8>
   22578:	bc400007 	ldb	r17,0(r23)
   2257c:	003a9606 	br	20fd8 <___svfprintf_internal_r+0x150>
   22580:	9080040c 	andi	r2,r18,16
   22584:	10010126 	beq	r2,zero,2298c <___svfprintf_internal_r+0x1b04>
   22588:	d9402d17 	ldw	r5,180(sp)
   2258c:	d8c02f17 	ldw	r3,188(sp)
   22590:	28800017 	ldw	r2,0(r5)
   22594:	29400104 	addi	r5,r5,4
   22598:	d9402d15 	stw	r5,180(sp)
   2259c:	10c00015 	stw	r3,0(r2)
   225a0:	003a6406 	br	20f34 <___svfprintf_internal_r+0xac>
   225a4:	d9002917 	ldw	r4,164(sp)
   225a8:	d8002785 	stb	zero,158(sp)
   225ac:	203d8d16 	blt	r4,zero,21be4 <___svfprintf_internal_r+0xd5c>
   225b0:	00bfdfc4 	movi	r2,-129
   225b4:	90a4703a 	and	r18,r18,r2
   225b8:	003b0506 	br	211d0 <___svfprintf_internal_r+0x348>
   225bc:	014000f4 	movhi	r5,3
   225c0:	294d0484 	addi	r5,r5,13330
   225c4:	d9402b15 	stw	r5,172(sp)
   225c8:	d9402b17 	ldw	r5,172(sp)
   225cc:	1c47883a 	add	r3,r3,r17
   225d0:	10800044 	addi	r2,r2,1
   225d4:	41400015 	stw	r5,0(r8)
   225d8:	44400115 	stw	r17,4(r8)
   225dc:	d8c02015 	stw	r3,128(sp)
   225e0:	d8801f15 	stw	r2,124(sp)
   225e4:	010001c4 	movi	r4,7
   225e8:	20bf3016 	blt	r4,r2,222ac <___svfprintf_internal_r+0x1424>
   225ec:	42000204 	addi	r8,r8,8
   225f0:	003f3506 	br	222c8 <___svfprintf_internal_r+0x1440>
   225f4:	010000f4 	movhi	r4,3
   225f8:	210d0484 	addi	r4,r4,13330
   225fc:	d9002b15 	stw	r4,172(sp)
   22600:	003c5e06 	br	2177c <___svfprintf_internal_r+0x8f4>
   22604:	d9402c17 	ldw	r5,176(sp)
   22608:	d9801e04 	addi	r6,sp,120
   2260c:	9809883a 	mov	r4,r19
   22610:	002a5600 	call	2a560 <__ssprint_r>
   22614:	103b011e 	bne	r2,zero,2121c <___svfprintf_internal_r+0x394>
   22618:	d8c02017 	ldw	r3,128(sp)
   2261c:	da000404 	addi	r8,sp,16
   22620:	003d9306 	br	21c70 <___svfprintf_internal_r+0xde8>
   22624:	d8801f17 	ldw	r2,124(sp)
   22628:	014000f4 	movhi	r5,3
   2262c:	01000044 	movi	r4,1
   22630:	18c00044 	addi	r3,r3,1
   22634:	10800044 	addi	r2,r2,1
   22638:	294d0404 	addi	r5,r5,13328
   2263c:	41000115 	stw	r4,4(r8)
   22640:	41400015 	stw	r5,0(r8)
   22644:	d8c02015 	stw	r3,128(sp)
   22648:	d8801f15 	stw	r2,124(sp)
   2264c:	010001c4 	movi	r4,7
   22650:	2080b516 	blt	r4,r2,22928 <___svfprintf_internal_r+0x1aa0>
   22654:	42000204 	addi	r8,r8,8
   22658:	8800041e 	bne	r17,zero,2266c <___svfprintf_internal_r+0x17e4>
   2265c:	d8803317 	ldw	r2,204(sp)
   22660:	1000021e 	bne	r2,zero,2266c <___svfprintf_internal_r+0x17e4>
   22664:	9080004c 	andi	r2,r18,1
   22668:	103c5b26 	beq	r2,zero,217d8 <___svfprintf_internal_r+0x950>
   2266c:	d9003817 	ldw	r4,224(sp)
   22670:	d8801f17 	ldw	r2,124(sp)
   22674:	d9403417 	ldw	r5,208(sp)
   22678:	20c7883a 	add	r3,r4,r3
   2267c:	10800044 	addi	r2,r2,1
   22680:	41000115 	stw	r4,4(r8)
   22684:	41400015 	stw	r5,0(r8)
   22688:	d8c02015 	stw	r3,128(sp)
   2268c:	d8801f15 	stw	r2,124(sp)
   22690:	010001c4 	movi	r4,7
   22694:	20818016 	blt	r4,r2,22c98 <___svfprintf_internal_r+0x1e10>
   22698:	42000204 	addi	r8,r8,8
   2269c:	0463c83a 	sub	r17,zero,r17
   226a0:	0440cb0e 	bge	zero,r17,229d0 <___svfprintf_internal_r+0x1b48>
   226a4:	05800404 	movi	r22,16
   226a8:	b440e80e 	bge	r22,r17,22a4c <___svfprintf_internal_r+0x1bc4>
   226ac:	014000f4 	movhi	r5,3
   226b0:	294d0484 	addi	r5,r5,13330
   226b4:	d9402b15 	stw	r5,172(sp)
   226b8:	070001c4 	movi	fp,7
   226bc:	dd002c17 	ldw	r20,176(sp)
   226c0:	00000306 	br	226d0 <___svfprintf_internal_r+0x1848>
   226c4:	42000204 	addi	r8,r8,8
   226c8:	8c7ffc04 	addi	r17,r17,-16
   226cc:	b440e20e 	bge	r22,r17,22a58 <___svfprintf_internal_r+0x1bd0>
   226d0:	18c00404 	addi	r3,r3,16
   226d4:	10800044 	addi	r2,r2,1
   226d8:	45400015 	stw	r21,0(r8)
   226dc:	45800115 	stw	r22,4(r8)
   226e0:	d8c02015 	stw	r3,128(sp)
   226e4:	d8801f15 	stw	r2,124(sp)
   226e8:	e0bff60e 	bge	fp,r2,226c4 <___svfprintf_internal_r+0x183c>
   226ec:	d9801e04 	addi	r6,sp,120
   226f0:	a00b883a 	mov	r5,r20
   226f4:	9809883a 	mov	r4,r19
   226f8:	002a5600 	call	2a560 <__ssprint_r>
   226fc:	103ac71e 	bne	r2,zero,2121c <___svfprintf_internal_r+0x394>
   22700:	d8c02017 	ldw	r3,128(sp)
   22704:	d8801f17 	ldw	r2,124(sp)
   22708:	da000404 	addi	r8,sp,16
   2270c:	003fee06 	br	226c8 <___svfprintf_internal_r+0x1840>
   22710:	d8c02d17 	ldw	r3,180(sp)
   22714:	d9002917 	ldw	r4,164(sp)
   22718:	002d883a 	mov	r22,zero
   2271c:	18800104 	addi	r2,r3,4
   22720:	1d000017 	ldw	r20,0(r3)
   22724:	203e7d0e 	bge	r4,zero,2211c <___svfprintf_internal_r+0x1294>
   22728:	003eda06 	br	22294 <___svfprintf_internal_r+0x140c>
   2272c:	d9402d17 	ldw	r5,180(sp)
   22730:	d8c02917 	ldw	r3,164(sp)
   22734:	002d883a 	mov	r22,zero
   22738:	28800104 	addi	r2,r5,4
   2273c:	2d000017 	ldw	r20,0(r5)
   22740:	183e2d0e 	bge	r3,zero,21ff8 <___svfprintf_internal_r+0x1170>
   22744:	003f6b06 	br	224f4 <___svfprintf_internal_r+0x166c>
   22748:	d8c02d15 	stw	r3,180(sp)
   2274c:	0039883a 	mov	fp,zero
   22750:	003ed206 	br	2229c <___svfprintf_internal_r+0x1414>
   22754:	bc400043 	ldbu	r17,1(r23)
   22758:	94800814 	ori	r18,r18,32
   2275c:	bdc00044 	addi	r23,r23,1
   22760:	8c403fcc 	andi	r17,r17,255
   22764:	8c40201c 	xori	r17,r17,128
   22768:	8c7fe004 	addi	r17,r17,-128
   2276c:	003a1a06 	br	20fd8 <___svfprintf_internal_r+0x150>
   22770:	d9402c17 	ldw	r5,176(sp)
   22774:	d9801e04 	addi	r6,sp,120
   22778:	9809883a 	mov	r4,r19
   2277c:	002a5600 	call	2a560 <__ssprint_r>
   22780:	103aa61e 	bne	r2,zero,2121c <___svfprintf_internal_r+0x394>
   22784:	d8c02017 	ldw	r3,128(sp)
   22788:	da000404 	addi	r8,sp,16
   2278c:	003d4a06 	br	21cb8 <___svfprintf_internal_r+0xe30>
   22790:	d9002917 	ldw	r4,164(sp)
   22794:	05bff7c4 	movi	r22,-33
   22798:	00bfffc4 	movi	r2,-1
   2279c:	8dac703a 	and	r22,r17,r22
   227a0:	20806a26 	beq	r4,r2,2294c <___svfprintf_internal_r+0x1ac4>
   227a4:	008011c4 	movi	r2,71
   227a8:	b0813726 	beq	r22,r2,22c88 <___svfprintf_internal_r+0x1e00>
   227ac:	d9003717 	ldw	r4,220(sp)
   227b0:	90c04014 	ori	r3,r18,256
   227b4:	d8c02b15 	stw	r3,172(sp)
   227b8:	20015d16 	blt	r4,zero,22d30 <___svfprintf_internal_r+0x1ea8>
   227bc:	dd003717 	ldw	r20,220(sp)
   227c0:	d8002a05 	stb	zero,168(sp)
   227c4:	00801984 	movi	r2,102
   227c8:	88814026 	beq	r17,r2,22ccc <___svfprintf_internal_r+0x1e44>
   227cc:	00801184 	movi	r2,70
   227d0:	88817126 	beq	r17,r2,22d98 <___svfprintf_internal_r+0x1f10>
   227d4:	00801144 	movi	r2,69
   227d8:	b0816226 	beq	r22,r2,22d64 <___svfprintf_internal_r+0x1edc>
   227dc:	d8c02917 	ldw	r3,164(sp)
   227e0:	d8802104 	addi	r2,sp,132
   227e4:	d8800315 	stw	r2,12(sp)
   227e8:	d9403617 	ldw	r5,216(sp)
   227ec:	d8802504 	addi	r2,sp,148
   227f0:	d8800215 	stw	r2,8(sp)
   227f4:	d8802604 	addi	r2,sp,152
   227f8:	d8c00015 	stw	r3,0(sp)
   227fc:	d8800115 	stw	r2,4(sp)
   22800:	01c00084 	movi	r7,2
   22804:	a00d883a 	mov	r6,r20
   22808:	9809883a 	mov	r4,r19
   2280c:	d8c03d15 	stw	r3,244(sp)
   22810:	da003e15 	stw	r8,248(sp)
   22814:	00256840 	call	25684 <_dtoa_r>
   22818:	1021883a 	mov	r16,r2
   2281c:	008019c4 	movi	r2,103
   22820:	d8c03d17 	ldw	r3,244(sp)
   22824:	da003e17 	ldw	r8,248(sp)
   22828:	8880e726 	beq	r17,r2,22bc8 <___svfprintf_internal_r+0x1d40>
   2282c:	008011c4 	movi	r2,71
   22830:	8880d426 	beq	r17,r2,22b84 <___svfprintf_internal_r+0x1cfc>
   22834:	80f9883a 	add	fp,r16,r3
   22838:	d9003617 	ldw	r4,216(sp)
   2283c:	000d883a 	mov	r6,zero
   22840:	000f883a 	mov	r7,zero
   22844:	a00b883a 	mov	r5,r20
   22848:	da003e15 	stw	r8,248(sp)
   2284c:	002f6e00 	call	2f6e0 <__eqdf2>
   22850:	da003e17 	ldw	r8,248(sp)
   22854:	1000e426 	beq	r2,zero,22be8 <___svfprintf_internal_r+0x1d60>
   22858:	d8802117 	ldw	r2,132(sp)
   2285c:	1700062e 	bgeu	r2,fp,22878 <___svfprintf_internal_r+0x19f0>
   22860:	01000c04 	movi	r4,48
   22864:	10c00044 	addi	r3,r2,1
   22868:	d8c02115 	stw	r3,132(sp)
   2286c:	11000005 	stb	r4,0(r2)
   22870:	d8802117 	ldw	r2,132(sp)
   22874:	173ffb36 	bltu	r2,fp,22864 <___svfprintf_internal_r+0x19dc>
   22878:	1405c83a 	sub	r2,r2,r16
   2287c:	d8803315 	stw	r2,204(sp)
   22880:	008011c4 	movi	r2,71
   22884:	b080c526 	beq	r22,r2,22b9c <___svfprintf_internal_r+0x1d14>
   22888:	00801944 	movi	r2,101
   2288c:	1441d90e 	bge	r2,r17,22ff4 <___svfprintf_internal_r+0x216c>
   22890:	d8c02617 	ldw	r3,152(sp)
   22894:	00801984 	movi	r2,102
   22898:	d8c03215 	stw	r3,200(sp)
   2289c:	88813426 	beq	r17,r2,22d70 <___svfprintf_internal_r+0x1ee8>
   228a0:	d8c03217 	ldw	r3,200(sp)
   228a4:	d9003317 	ldw	r4,204(sp)
   228a8:	19012516 	blt	r3,r4,22d40 <___svfprintf_internal_r+0x1eb8>
   228ac:	9480004c 	andi	r18,r18,1
   228b0:	9001841e 	bne	r18,zero,22ec4 <___svfprintf_internal_r+0x203c>
   228b4:	1805883a 	mov	r2,r3
   228b8:	1801cc16 	blt	r3,zero,22fec <___svfprintf_internal_r+0x2164>
   228bc:	d8c03217 	ldw	r3,200(sp)
   228c0:	044019c4 	movi	r17,103
   228c4:	d8c02e15 	stw	r3,184(sp)
   228c8:	df002a07 	ldb	fp,168(sp)
   228cc:	e000a61e 	bne	fp,zero,22b68 <___svfprintf_internal_r+0x1ce0>
   228d0:	df002783 	ldbu	fp,158(sp)
   228d4:	d8802a15 	stw	r2,168(sp)
   228d8:	dc802b17 	ldw	r18,172(sp)
   228dc:	d8002915 	stw	zero,164(sp)
   228e0:	003b1706 	br	21540 <___svfprintf_internal_r+0x6b8>
   228e4:	040000f4 	movhi	r16,3
   228e8:	840cf404 	addi	r16,r16,13264
   228ec:	003aa606 	br	21388 <___svfprintf_internal_r+0x500>
   228f0:	d9003917 	ldw	r4,228(sp)
   228f4:	04001004 	movi	r16,64
   228f8:	800b883a 	mov	r5,r16
   228fc:	00280640 	call	28064 <_malloc_r>
   22900:	d9002c17 	ldw	r4,176(sp)
   22904:	20800015 	stw	r2,0(r4)
   22908:	20800415 	stw	r2,16(r4)
   2290c:	1001cb26 	beq	r2,zero,2303c <___svfprintf_internal_r+0x21b4>
   22910:	d8802c17 	ldw	r2,176(sp)
   22914:	14000515 	stw	r16,20(r2)
   22918:	00397606 	br	20ef4 <___svfprintf_internal_r+0x6c>
   2291c:	040000f4 	movhi	r16,3
   22920:	840cf604 	addi	r16,r16,13272
   22924:	003ee106 	br	224ac <___svfprintf_internal_r+0x1624>
   22928:	d9402c17 	ldw	r5,176(sp)
   2292c:	d9801e04 	addi	r6,sp,120
   22930:	9809883a 	mov	r4,r19
   22934:	002a5600 	call	2a560 <__ssprint_r>
   22938:	103a381e 	bne	r2,zero,2121c <___svfprintf_internal_r+0x394>
   2293c:	dc402617 	ldw	r17,152(sp)
   22940:	d8c02017 	ldw	r3,128(sp)
   22944:	da000404 	addi	r8,sp,16
   22948:	003f4306 	br	22658 <___svfprintf_internal_r+0x17d0>
   2294c:	01400184 	movi	r5,6
   22950:	d9402915 	stw	r5,164(sp)
   22954:	003f9506 	br	227ac <___svfprintf_internal_r+0x1924>
   22958:	d9002d17 	ldw	r4,180(sp)
   2295c:	25000017 	ldw	r20,0(r4)
   22960:	21000104 	addi	r4,r4,4
   22964:	d9002d15 	stw	r4,180(sp)
   22968:	a02dd7fa 	srai	r22,r20,31
   2296c:	b005883a 	mov	r2,r22
   22970:	003a9b06 	br	213e0 <___svfprintf_internal_r+0x558>
   22974:	d9402d17 	ldw	r5,180(sp)
   22978:	002d883a 	mov	r22,zero
   2297c:	2d000017 	ldw	r20,0(r5)
   22980:	29400104 	addi	r5,r5,4
   22984:	d9402d15 	stw	r5,180(sp)
   22988:	003bf906 	br	21970 <___svfprintf_internal_r+0xae8>
   2298c:	9480100c 	andi	r18,r18,64
   22990:	90006e26 	beq	r18,zero,22b4c <___svfprintf_internal_r+0x1cc4>
   22994:	d9002d17 	ldw	r4,180(sp)
   22998:	d9402f17 	ldw	r5,188(sp)
   2299c:	20800017 	ldw	r2,0(r4)
   229a0:	21000104 	addi	r4,r4,4
   229a4:	d9002d15 	stw	r4,180(sp)
   229a8:	1140000d 	sth	r5,0(r2)
   229ac:	00396106 	br	20f34 <___svfprintf_internal_r+0xac>
   229b0:	d9402c17 	ldw	r5,176(sp)
   229b4:	d9801e04 	addi	r6,sp,120
   229b8:	9809883a 	mov	r4,r19
   229bc:	002a5600 	call	2a560 <__ssprint_r>
   229c0:	103a161e 	bne	r2,zero,2121c <___svfprintf_internal_r+0x394>
   229c4:	d8c02017 	ldw	r3,128(sp)
   229c8:	d8801f17 	ldw	r2,124(sp)
   229cc:	da000404 	addi	r8,sp,16
   229d0:	d9403317 	ldw	r5,204(sp)
   229d4:	10800044 	addi	r2,r2,1
   229d8:	44000015 	stw	r16,0(r8)
   229dc:	28c7883a 	add	r3,r5,r3
   229e0:	003b7706 	br	217c0 <___svfprintf_internal_r+0x938>
   229e4:	8009883a 	mov	r4,r16
   229e8:	da003e15 	stw	r8,248(sp)
   229ec:	0020df00 	call	20df0 <strlen>
   229f0:	d8802e15 	stw	r2,184(sp)
   229f4:	da003e17 	ldw	r8,248(sp)
   229f8:	103c280e 	bge	r2,zero,21a9c <___svfprintf_internal_r+0xc14>
   229fc:	0005883a 	mov	r2,zero
   22a00:	003c2606 	br	21a9c <___svfprintf_internal_r+0xc14>
   22a04:	00bfffc4 	movi	r2,-1
   22a08:	003a0906 	br	21230 <___svfprintf_internal_r+0x3a8>
   22a0c:	010000f4 	movhi	r4,3
   22a10:	210d0884 	addi	r4,r4,13346
   22a14:	d9003515 	stw	r4,212(sp)
   22a18:	003b0606 	br	21634 <___svfprintf_internal_r+0x7ac>
   22a1c:	013fffc4 	movi	r4,-1
   22a20:	003a2706 	br	212c0 <___svfprintf_internal_r+0x438>
   22a24:	d9402c17 	ldw	r5,176(sp)
   22a28:	d9801e04 	addi	r6,sp,120
   22a2c:	9809883a 	mov	r4,r19
   22a30:	002a5600 	call	2a560 <__ssprint_r>
   22a34:	1039f91e 	bne	r2,zero,2121c <___svfprintf_internal_r+0x394>
   22a38:	d8c02017 	ldw	r3,128(sp)
   22a3c:	da000404 	addi	r8,sp,16
   22a40:	003d8406 	br	22054 <___svfprintf_internal_r+0x11cc>
   22a44:	0023883a 	mov	r17,zero
   22a48:	003d8306 	br	22058 <___svfprintf_internal_r+0x11d0>
   22a4c:	010000f4 	movhi	r4,3
   22a50:	210d0484 	addi	r4,r4,13330
   22a54:	d9002b15 	stw	r4,172(sp)
   22a58:	d9002b17 	ldw	r4,172(sp)
   22a5c:	1c47883a 	add	r3,r3,r17
   22a60:	10800044 	addi	r2,r2,1
   22a64:	41000015 	stw	r4,0(r8)
   22a68:	44400115 	stw	r17,4(r8)
   22a6c:	d8c02015 	stw	r3,128(sp)
   22a70:	d8801f15 	stw	r2,124(sp)
   22a74:	010001c4 	movi	r4,7
   22a78:	20bfcd16 	blt	r4,r2,229b0 <___svfprintf_internal_r+0x1b28>
   22a7c:	42000204 	addi	r8,r8,8
   22a80:	003fd306 	br	229d0 <___svfprintf_internal_r+0x1b48>
   22a84:	d9402c17 	ldw	r5,176(sp)
   22a88:	d9801e04 	addi	r6,sp,120
   22a8c:	9809883a 	mov	r4,r19
   22a90:	002a5600 	call	2a560 <__ssprint_r>
   22a94:	1039e11e 	bne	r2,zero,2121c <___svfprintf_internal_r+0x394>
   22a98:	d8802617 	ldw	r2,152(sp)
   22a9c:	d8c02017 	ldw	r3,128(sp)
   22aa0:	da000404 	addi	r8,sp,16
   22aa4:	003e1c06 	br	22318 <___svfprintf_internal_r+0x1490>
   22aa8:	d8802917 	ldw	r2,164(sp)
   22aac:	00c00184 	movi	r3,6
   22ab0:	1880012e 	bgeu	r3,r2,22ab8 <___svfprintf_internal_r+0x1c30>
   22ab4:	1805883a 	mov	r2,r3
   22ab8:	d8802e15 	stw	r2,184(sp)
   22abc:	1000f316 	blt	r2,zero,22e8c <___svfprintf_internal_r+0x2004>
   22ac0:	040000f4 	movhi	r16,3
   22ac4:	d8802a15 	stw	r2,168(sp)
   22ac8:	dd002d15 	stw	r20,180(sp)
   22acc:	d8002915 	stw	zero,164(sp)
   22ad0:	d8003215 	stw	zero,200(sp)
   22ad4:	840d0204 	addi	r16,r16,13320
   22ad8:	0039883a 	mov	fp,zero
   22adc:	003a9f06 	br	2155c <___svfprintf_internal_r+0x6d4>
   22ae0:	010000f4 	movhi	r4,3
   22ae4:	210d0884 	addi	r4,r4,13346
   22ae8:	d9003515 	stw	r4,212(sp)
   22aec:	003b5f06 	br	2186c <___svfprintf_internal_r+0x9e4>
   22af0:	d9402c17 	ldw	r5,176(sp)
   22af4:	d9801e04 	addi	r6,sp,120
   22af8:	9809883a 	mov	r4,r19
   22afc:	002a5600 	call	2a560 <__ssprint_r>
   22b00:	1039c61e 	bne	r2,zero,2121c <___svfprintf_internal_r+0x394>
   22b04:	d8802617 	ldw	r2,152(sp)
   22b08:	d9403317 	ldw	r5,204(sp)
   22b0c:	d8c02017 	ldw	r3,128(sp)
   22b10:	da000404 	addi	r8,sp,16
   22b14:	2885c83a 	sub	r2,r5,r2
   22b18:	003e1006 	br	2235c <___svfprintf_internal_r+0x14d4>
   22b1c:	00800044 	movi	r2,1
   22b20:	10803fcc 	andi	r2,r2,255
   22b24:	00c00044 	movi	r3,1
   22b28:	10fa3526 	beq	r2,r3,21400 <___svfprintf_internal_r+0x578>
   22b2c:	00c00084 	movi	r3,2
   22b30:	10fb9e26 	beq	r2,r3,219ac <___svfprintf_internal_r+0xb24>
   22b34:	003a6406 	br	214c8 <___svfprintf_internal_r+0x640>
   22b38:	0021883a 	mov	r16,zero
   22b3c:	003e0806 	br	22360 <___svfprintf_internal_r+0x14d8>
   22b40:	07000b44 	movi	fp,45
   22b44:	df002785 	stb	fp,158(sp)
   22b48:	003a0b06 	br	21378 <___svfprintf_internal_r+0x4f0>
   22b4c:	d8c02d17 	ldw	r3,180(sp)
   22b50:	d9002f17 	ldw	r4,188(sp)
   22b54:	18800017 	ldw	r2,0(r3)
   22b58:	18c00104 	addi	r3,r3,4
   22b5c:	d8c02d15 	stw	r3,180(sp)
   22b60:	11000015 	stw	r4,0(r2)
   22b64:	0038f306 	br	20f34 <___svfprintf_internal_r+0xac>
   22b68:	00c00b44 	movi	r3,45
   22b6c:	d8c02785 	stb	r3,158(sp)
   22b70:	d8802a15 	stw	r2,168(sp)
   22b74:	dc802b17 	ldw	r18,172(sp)
   22b78:	d8002915 	stw	zero,164(sp)
   22b7c:	07000b44 	movi	fp,45
   22b80:	003a7306 	br	21550 <___svfprintf_internal_r+0x6c8>
   22b84:	9080004c 	andi	r2,r18,1
   22b88:	1000941e 	bne	r2,zero,22ddc <___svfprintf_internal_r+0x1f54>
   22b8c:	d8802117 	ldw	r2,132(sp)
   22b90:	1405c83a 	sub	r2,r2,r16
   22b94:	d8803315 	stw	r2,204(sp)
   22b98:	b441161e 	bne	r22,r17,22ff4 <___svfprintf_internal_r+0x216c>
   22b9c:	dd802617 	ldw	r22,152(sp)
   22ba0:	00bfff44 	movi	r2,-3
   22ba4:	b0801a16 	blt	r22,r2,22c10 <___svfprintf_internal_r+0x1d88>
   22ba8:	d9402917 	ldw	r5,164(sp)
   22bac:	2d801816 	blt	r5,r22,22c10 <___svfprintf_internal_r+0x1d88>
   22bb0:	dd803215 	stw	r22,200(sp)
   22bb4:	003f3a06 	br	228a0 <___svfprintf_internal_r+0x1a18>
   22bb8:	1025883a 	mov	r18,r2
   22bbc:	0039883a 	mov	fp,zero
   22bc0:	00800084 	movi	r2,2
   22bc4:	003fd606 	br	22b20 <___svfprintf_internal_r+0x1c98>
   22bc8:	9080004c 	andi	r2,r18,1
   22bcc:	103f191e 	bne	r2,zero,22834 <___svfprintf_internal_r+0x19ac>
   22bd0:	d8802117 	ldw	r2,132(sp)
   22bd4:	003f2806 	br	22878 <___svfprintf_internal_r+0x19f0>
   22bd8:	010000f4 	movhi	r4,3
   22bdc:	210d0484 	addi	r4,r4,13330
   22be0:	d9002b15 	stw	r4,172(sp)
   22be4:	003c7c06 	br	21dd8 <___svfprintf_internal_r+0xf50>
   22be8:	e005883a 	mov	r2,fp
   22bec:	003f2206 	br	22878 <___svfprintf_internal_r+0x19f0>
   22bf0:	d9402917 	ldw	r5,164(sp)
   22bf4:	df002783 	ldbu	fp,158(sp)
   22bf8:	dd002d15 	stw	r20,180(sp)
   22bfc:	d9402a15 	stw	r5,168(sp)
   22c00:	d9402e15 	stw	r5,184(sp)
   22c04:	d8002915 	stw	zero,164(sp)
   22c08:	d8003215 	stw	zero,200(sp)
   22c0c:	003a4c06 	br	21540 <___svfprintf_internal_r+0x6b8>
   22c10:	8c7fff84 	addi	r17,r17,-2
   22c14:	b5bfffc4 	addi	r22,r22,-1
   22c18:	dd802615 	stw	r22,152(sp)
   22c1c:	dc4022c5 	stb	r17,139(sp)
   22c20:	b000c316 	blt	r22,zero,22f30 <___svfprintf_internal_r+0x20a8>
   22c24:	00800ac4 	movi	r2,43
   22c28:	d8802305 	stb	r2,140(sp)
   22c2c:	00800244 	movi	r2,9
   22c30:	15806e16 	blt	r2,r22,22dec <___svfprintf_internal_r+0x1f64>
   22c34:	00800c04 	movi	r2,48
   22c38:	b5800c04 	addi	r22,r22,48
   22c3c:	d8802345 	stb	r2,141(sp)
   22c40:	dd802385 	stb	r22,142(sp)
   22c44:	d88023c4 	addi	r2,sp,143
   22c48:	df0022c4 	addi	fp,sp,139
   22c4c:	d8c03317 	ldw	r3,204(sp)
   22c50:	1739c83a 	sub	fp,r2,fp
   22c54:	d9003317 	ldw	r4,204(sp)
   22c58:	e0c7883a 	add	r3,fp,r3
   22c5c:	df003b15 	stw	fp,236(sp)
   22c60:	d8c02e15 	stw	r3,184(sp)
   22c64:	00800044 	movi	r2,1
   22c68:	1100b70e 	bge	r2,r4,22f48 <___svfprintf_internal_r+0x20c0>
   22c6c:	d8c02e17 	ldw	r3,184(sp)
   22c70:	18c00044 	addi	r3,r3,1
   22c74:	d8c02e15 	stw	r3,184(sp)
   22c78:	1805883a 	mov	r2,r3
   22c7c:	1800b016 	blt	r3,zero,22f40 <___svfprintf_internal_r+0x20b8>
   22c80:	d8003215 	stw	zero,200(sp)
   22c84:	003f1006 	br	228c8 <___svfprintf_internal_r+0x1a40>
   22c88:	d8802917 	ldw	r2,164(sp)
   22c8c:	103ec71e 	bne	r2,zero,227ac <___svfprintf_internal_r+0x1924>
   22c90:	dc002915 	stw	r16,164(sp)
   22c94:	003ec506 	br	227ac <___svfprintf_internal_r+0x1924>
   22c98:	d9402c17 	ldw	r5,176(sp)
   22c9c:	d9801e04 	addi	r6,sp,120
   22ca0:	9809883a 	mov	r4,r19
   22ca4:	002a5600 	call	2a560 <__ssprint_r>
   22ca8:	10395c1e 	bne	r2,zero,2121c <___svfprintf_internal_r+0x394>
   22cac:	dc402617 	ldw	r17,152(sp)
   22cb0:	d8c02017 	ldw	r3,128(sp)
   22cb4:	d8801f17 	ldw	r2,124(sp)
   22cb8:	da000404 	addi	r8,sp,16
   22cbc:	003e7706 	br	2269c <___svfprintf_internal_r+0x1814>
   22cc0:	582f883a 	mov	r23,r11
   22cc4:	d8002915 	stw	zero,164(sp)
   22cc8:	0038c406 	br	20fdc <___svfprintf_internal_r+0x154>
   22ccc:	d8c02917 	ldw	r3,164(sp)
   22cd0:	d8802104 	addi	r2,sp,132
   22cd4:	d8800315 	stw	r2,12(sp)
   22cd8:	d9403617 	ldw	r5,216(sp)
   22cdc:	d8802504 	addi	r2,sp,148
   22ce0:	d8800215 	stw	r2,8(sp)
   22ce4:	d8802604 	addi	r2,sp,152
   22ce8:	d8c00015 	stw	r3,0(sp)
   22cec:	9809883a 	mov	r4,r19
   22cf0:	d8800115 	stw	r2,4(sp)
   22cf4:	01c000c4 	movi	r7,3
   22cf8:	a00d883a 	mov	r6,r20
   22cfc:	da003e15 	stw	r8,248(sp)
   22d00:	00256840 	call	25684 <_dtoa_r>
   22d04:	d9002917 	ldw	r4,164(sp)
   22d08:	da003e17 	ldw	r8,248(sp)
   22d0c:	1021883a 	mov	r16,r2
   22d10:	1139883a 	add	fp,r2,r4
   22d14:	2007883a 	mov	r3,r4
   22d18:	81000007 	ldb	r4,0(r16)
   22d1c:	00800c04 	movi	r2,48
   22d20:	20806f26 	beq	r4,r2,22ee0 <___svfprintf_internal_r+0x2058>
   22d24:	d8c02617 	ldw	r3,152(sp)
   22d28:	e0f9883a 	add	fp,fp,r3
   22d2c:	003ec206 	br	22838 <___svfprintf_internal_r+0x19b0>
   22d30:	00c00b44 	movi	r3,45
   22d34:	2520003c 	xorhi	r20,r4,32768
   22d38:	d8c02a05 	stb	r3,168(sp)
   22d3c:	003ea106 	br	227c4 <___svfprintf_internal_r+0x193c>
   22d40:	d8c03217 	ldw	r3,200(sp)
   22d44:	00c0890e 	bge	zero,r3,22f6c <___svfprintf_internal_r+0x20e4>
   22d48:	00800044 	movi	r2,1
   22d4c:	d9003317 	ldw	r4,204(sp)
   22d50:	1105883a 	add	r2,r2,r4
   22d54:	d8802e15 	stw	r2,184(sp)
   22d58:	10005f16 	blt	r2,zero,22ed8 <___svfprintf_internal_r+0x2050>
   22d5c:	044019c4 	movi	r17,103
   22d60:	003ed906 	br	228c8 <___svfprintf_internal_r+0x1a40>
   22d64:	d9002917 	ldw	r4,164(sp)
   22d68:	20c00044 	addi	r3,r4,1
   22d6c:	003e9c06 	br	227e0 <___svfprintf_internal_r+0x1958>
   22d70:	d9002917 	ldw	r4,164(sp)
   22d74:	00c0680e 	bge	zero,r3,22f18 <___svfprintf_internal_r+0x2090>
   22d78:	2000461e 	bne	r4,zero,22e94 <___svfprintf_internal_r+0x200c>
   22d7c:	9480004c 	andi	r18,r18,1
   22d80:	9000441e 	bne	r18,zero,22e94 <___svfprintf_internal_r+0x200c>
   22d84:	1805883a 	mov	r2,r3
   22d88:	1800a016 	blt	r3,zero,2300c <___svfprintf_internal_r+0x2184>
   22d8c:	d8c03217 	ldw	r3,200(sp)
   22d90:	d8c02e15 	stw	r3,184(sp)
   22d94:	003ecc06 	br	228c8 <___svfprintf_internal_r+0x1a40>
   22d98:	d9402917 	ldw	r5,164(sp)
   22d9c:	d8802104 	addi	r2,sp,132
   22da0:	d8800315 	stw	r2,12(sp)
   22da4:	d9400015 	stw	r5,0(sp)
   22da8:	d8802504 	addi	r2,sp,148
   22dac:	d9403617 	ldw	r5,216(sp)
   22db0:	d8800215 	stw	r2,8(sp)
   22db4:	d8802604 	addi	r2,sp,152
   22db8:	d8800115 	stw	r2,4(sp)
   22dbc:	01c000c4 	movi	r7,3
   22dc0:	a00d883a 	mov	r6,r20
   22dc4:	9809883a 	mov	r4,r19
   22dc8:	da003e15 	stw	r8,248(sp)
   22dcc:	00256840 	call	25684 <_dtoa_r>
   22dd0:	d8c02917 	ldw	r3,164(sp)
   22dd4:	da003e17 	ldw	r8,248(sp)
   22dd8:	1021883a 	mov	r16,r2
   22ddc:	00801184 	movi	r2,70
   22de0:	80f9883a 	add	fp,r16,r3
   22de4:	88bfcc26 	beq	r17,r2,22d18 <___svfprintf_internal_r+0x1e90>
   22de8:	003e9306 	br	22838 <___svfprintf_internal_r+0x19b0>
   22dec:	df0022c4 	addi	fp,sp,139
   22df0:	dc002915 	stw	r16,164(sp)
   22df4:	9829883a 	mov	r20,r19
   22df8:	e021883a 	mov	r16,fp
   22dfc:	4027883a 	mov	r19,r8
   22e00:	b009883a 	mov	r4,r22
   22e04:	01400284 	movi	r5,10
   22e08:	002e41c0 	call	2e41c <__modsi3>
   22e0c:	10800c04 	addi	r2,r2,48
   22e10:	843fffc4 	addi	r16,r16,-1
   22e14:	b009883a 	mov	r4,r22
   22e18:	01400284 	movi	r5,10
   22e1c:	80800005 	stb	r2,0(r16)
   22e20:	002e3980 	call	2e398 <__divsi3>
   22e24:	102d883a 	mov	r22,r2
   22e28:	00800244 	movi	r2,9
   22e2c:	15bff416 	blt	r2,r22,22e00 <___svfprintf_internal_r+0x1f78>
   22e30:	9811883a 	mov	r8,r19
   22e34:	b0800c04 	addi	r2,r22,48
   22e38:	a027883a 	mov	r19,r20
   22e3c:	8029883a 	mov	r20,r16
   22e40:	a17fffc4 	addi	r5,r20,-1
   22e44:	a0bfffc5 	stb	r2,-1(r20)
   22e48:	dc002917 	ldw	r16,164(sp)
   22e4c:	2f00752e 	bgeu	r5,fp,23024 <___svfprintf_internal_r+0x219c>
   22e50:	d9c02384 	addi	r7,sp,142
   22e54:	3d0fc83a 	sub	r7,r7,r20
   22e58:	d9002344 	addi	r4,sp,141
   22e5c:	e1cf883a 	add	r7,fp,r7
   22e60:	00000106 	br	22e68 <___svfprintf_internal_r+0x1fe0>
   22e64:	28800003 	ldbu	r2,0(r5)
   22e68:	20800005 	stb	r2,0(r4)
   22e6c:	21000044 	addi	r4,r4,1
   22e70:	29400044 	addi	r5,r5,1
   22e74:	21fffb1e 	bne	r4,r7,22e64 <___svfprintf_internal_r+0x1fdc>
   22e78:	d8802304 	addi	r2,sp,140
   22e7c:	1505c83a 	sub	r2,r2,r20
   22e80:	d8c02344 	addi	r3,sp,141
   22e84:	1885883a 	add	r2,r3,r2
   22e88:	003f7006 	br	22c4c <___svfprintf_internal_r+0x1dc4>
   22e8c:	0005883a 	mov	r2,zero
   22e90:	003f0b06 	br	22ac0 <___svfprintf_internal_r+0x1c38>
   22e94:	d9002917 	ldw	r4,164(sp)
   22e98:	d8c03217 	ldw	r3,200(sp)
   22e9c:	20800044 	addi	r2,r4,1
   22ea0:	1885883a 	add	r2,r3,r2
   22ea4:	d8802e15 	stw	r2,184(sp)
   22ea8:	103e870e 	bge	r2,zero,228c8 <___svfprintf_internal_r+0x1a40>
   22eac:	0005883a 	mov	r2,zero
   22eb0:	003e8506 	br	228c8 <___svfprintf_internal_r+0x1a40>
   22eb4:	010000f4 	movhi	r4,3
   22eb8:	210d0484 	addi	r4,r4,13330
   22ebc:	d9002b15 	stw	r4,172(sp)
   22ec0:	003cc506 	br	221d8 <___svfprintf_internal_r+0x1350>
   22ec4:	d8c03217 	ldw	r3,200(sp)
   22ec8:	18c00044 	addi	r3,r3,1
   22ecc:	d8c02e15 	stw	r3,184(sp)
   22ed0:	1805883a 	mov	r2,r3
   22ed4:	183fa10e 	bge	r3,zero,22d5c <___svfprintf_internal_r+0x1ed4>
   22ed8:	0005883a 	mov	r2,zero
   22edc:	003f9f06 	br	22d5c <___svfprintf_internal_r+0x1ed4>
   22ee0:	d9003617 	ldw	r4,216(sp)
   22ee4:	000d883a 	mov	r6,zero
   22ee8:	000f883a 	mov	r7,zero
   22eec:	a00b883a 	mov	r5,r20
   22ef0:	d8c03d15 	stw	r3,244(sp)
   22ef4:	da003e15 	stw	r8,248(sp)
   22ef8:	002f6e00 	call	2f6e0 <__eqdf2>
   22efc:	d8c03d17 	ldw	r3,244(sp)
   22f00:	da003e17 	ldw	r8,248(sp)
   22f04:	103f8726 	beq	r2,zero,22d24 <___svfprintf_internal_r+0x1e9c>
   22f08:	00800044 	movi	r2,1
   22f0c:	10c7c83a 	sub	r3,r2,r3
   22f10:	d8c02615 	stw	r3,152(sp)
   22f14:	003f8406 	br	22d28 <___svfprintf_internal_r+0x1ea0>
   22f18:	20000e1e 	bne	r4,zero,22f54 <___svfprintf_internal_r+0x20cc>
   22f1c:	9480004c 	andi	r18,r18,1
   22f20:	90000c1e 	bne	r18,zero,22f54 <___svfprintf_internal_r+0x20cc>
   22f24:	00800044 	movi	r2,1
   22f28:	d8802e15 	stw	r2,184(sp)
   22f2c:	003e6606 	br	228c8 <___svfprintf_internal_r+0x1a40>
   22f30:	00800b44 	movi	r2,45
   22f34:	05adc83a 	sub	r22,zero,r22
   22f38:	d8802305 	stb	r2,140(sp)
   22f3c:	003f3b06 	br	22c2c <___svfprintf_internal_r+0x1da4>
   22f40:	0005883a 	mov	r2,zero
   22f44:	003f4e06 	br	22c80 <___svfprintf_internal_r+0x1df8>
   22f48:	90a4703a 	and	r18,r18,r2
   22f4c:	903f4a26 	beq	r18,zero,22c78 <___svfprintf_internal_r+0x1df0>
   22f50:	003f4606 	br	22c6c <___svfprintf_internal_r+0x1de4>
   22f54:	d8c02917 	ldw	r3,164(sp)
   22f58:	18c00084 	addi	r3,r3,2
   22f5c:	d8c02e15 	stw	r3,184(sp)
   22f60:	1805883a 	mov	r2,r3
   22f64:	183e580e 	bge	r3,zero,228c8 <___svfprintf_internal_r+0x1a40>
   22f68:	003fd006 	br	22eac <___svfprintf_internal_r+0x2024>
   22f6c:	00800084 	movi	r2,2
   22f70:	10c5c83a 	sub	r2,r2,r3
   22f74:	003f7506 	br	22d4c <___svfprintf_internal_r+0x1ec4>
   22f78:	d8802d17 	ldw	r2,180(sp)
   22f7c:	d9002d17 	ldw	r4,180(sp)
   22f80:	bc400043 	ldbu	r17,1(r23)
   22f84:	10800017 	ldw	r2,0(r2)
   22f88:	582f883a 	mov	r23,r11
   22f8c:	d8802915 	stw	r2,164(sp)
   22f90:	20800104 	addi	r2,r4,4
   22f94:	d9002917 	ldw	r4,164(sp)
   22f98:	d8802d15 	stw	r2,180(sp)
   22f9c:	203df00e 	bge	r4,zero,22760 <___svfprintf_internal_r+0x18d8>
   22fa0:	8c403fcc 	andi	r17,r17,255
   22fa4:	00bfffc4 	movi	r2,-1
   22fa8:	8c40201c 	xori	r17,r17,128
   22fac:	d8802915 	stw	r2,164(sp)
   22fb0:	8c7fe004 	addi	r17,r17,-128
   22fb4:	00380806 	br	20fd8 <___svfprintf_internal_r+0x150>
   22fb8:	9080004c 	andi	r2,r18,1
   22fbc:	0039883a 	mov	fp,zero
   22fc0:	10000726 	beq	r2,zero,22fe0 <___svfprintf_internal_r+0x2158>
   22fc4:	d8c02817 	ldw	r3,160(sp)
   22fc8:	dc001dc4 	addi	r16,sp,119
   22fcc:	00800c04 	movi	r2,48
   22fd0:	1c07c83a 	sub	r3,r3,r16
   22fd4:	d8801dc5 	stb	r2,119(sp)
   22fd8:	d8c02e15 	stw	r3,184(sp)
   22fdc:	00395206 	br	21528 <___svfprintf_internal_r+0x6a0>
   22fe0:	d8002e15 	stw	zero,184(sp)
   22fe4:	dc001e04 	addi	r16,sp,120
   22fe8:	00394f06 	br	21528 <___svfprintf_internal_r+0x6a0>
   22fec:	0005883a 	mov	r2,zero
   22ff0:	003e3206 	br	228bc <___svfprintf_internal_r+0x1a34>
   22ff4:	dd802617 	ldw	r22,152(sp)
   22ff8:	003f0606 	br	22c14 <___svfprintf_internal_r+0x1d8c>
   22ffc:	d9c02785 	stb	r7,158(sp)
   23000:	003a5106 	br	21948 <___svfprintf_internal_r+0xac0>
   23004:	d9c02785 	stb	r7,158(sp)
   23008:	003a3706 	br	218e8 <___svfprintf_internal_r+0xa60>
   2300c:	0005883a 	mov	r2,zero
   23010:	003f5e06 	br	22d8c <___svfprintf_internal_r+0x1f04>
   23014:	d9c02785 	stb	r7,158(sp)
   23018:	00391706 	br	21478 <___svfprintf_internal_r+0x5f0>
   2301c:	d9c02785 	stb	r7,158(sp)
   23020:	0038e606 	br	213bc <___svfprintf_internal_r+0x534>
   23024:	d8802344 	addi	r2,sp,141
   23028:	003f0806 	br	22c4c <___svfprintf_internal_r+0x1dc4>
   2302c:	d9c02785 	stb	r7,158(sp)
   23030:	0038b706 	br	21310 <___svfprintf_internal_r+0x488>
   23034:	d9c02785 	stb	r7,158(sp)
   23038:	003adc06 	br	21bac <___svfprintf_internal_r+0xd24>
   2303c:	d9403917 	ldw	r5,228(sp)
   23040:	00800304 	movi	r2,12
   23044:	28800015 	stw	r2,0(r5)
   23048:	00bfffc4 	movi	r2,-1
   2304c:	00387806 	br	21230 <___svfprintf_internal_r+0x3a8>
   23050:	d9c02785 	stb	r7,158(sp)
   23054:	003abf06 	br	21b54 <___svfprintf_internal_r+0xccc>
   23058:	d9c02785 	stb	r7,158(sp)
   2305c:	003a9b06 	br	21acc <___svfprintf_internal_r+0xc44>

00023060 <___vfprintf_internal_r>:
   23060:	deffb804 	addi	sp,sp,-288
   23064:	dfc04715 	stw	ra,284(sp)
   23068:	ddc04515 	stw	r23,276(sp)
   2306c:	dd404315 	stw	r21,268(sp)
   23070:	d9002c15 	stw	r4,176(sp)
   23074:	282f883a 	mov	r23,r5
   23078:	302b883a 	mov	r21,r6
   2307c:	d9c02d15 	stw	r7,180(sp)
   23080:	df004615 	stw	fp,280(sp)
   23084:	dd804415 	stw	r22,272(sp)
   23088:	dd004215 	stw	r20,264(sp)
   2308c:	dcc04115 	stw	r19,260(sp)
   23090:	dc804015 	stw	r18,256(sp)
   23094:	dc403f15 	stw	r17,252(sp)
   23098:	dc003e15 	stw	r16,248(sp)
   2309c:	0027e780 	call	27e78 <_localeconv_r>
   230a0:	10800017 	ldw	r2,0(r2)
   230a4:	1009883a 	mov	r4,r2
   230a8:	d8803415 	stw	r2,208(sp)
   230ac:	0020df00 	call	20df0 <strlen>
   230b0:	d8803715 	stw	r2,220(sp)
   230b4:	d8802c17 	ldw	r2,176(sp)
   230b8:	10000226 	beq	r2,zero,230c4 <___vfprintf_internal_r+0x64>
   230bc:	10800e17 	ldw	r2,56(r2)
   230c0:	1000f926 	beq	r2,zero,234a8 <___vfprintf_internal_r+0x448>
   230c4:	b880030b 	ldhu	r2,12(r23)
   230c8:	10c8000c 	andi	r3,r2,8192
   230cc:	1800061e 	bne	r3,zero,230e8 <___vfprintf_internal_r+0x88>
   230d0:	b9001917 	ldw	r4,100(r23)
   230d4:	00f7ffc4 	movi	r3,-8193
   230d8:	10880014 	ori	r2,r2,8192
   230dc:	20c6703a 	and	r3,r4,r3
   230e0:	b880030d 	sth	r2,12(r23)
   230e4:	b8c01915 	stw	r3,100(r23)
   230e8:	10c0020c 	andi	r3,r2,8
   230ec:	1800c126 	beq	r3,zero,233f4 <___vfprintf_internal_r+0x394>
   230f0:	b8c00417 	ldw	r3,16(r23)
   230f4:	1800bf26 	beq	r3,zero,233f4 <___vfprintf_internal_r+0x394>
   230f8:	1080068c 	andi	r2,r2,26
   230fc:	00c00284 	movi	r3,10
   23100:	10c0c426 	beq	r2,r3,23414 <___vfprintf_internal_r+0x3b4>
   23104:	d8c00404 	addi	r3,sp,16
   23108:	050000f4 	movhi	r20,3
   2310c:	d9001e04 	addi	r4,sp,120
   23110:	a50d0c84 	addi	r20,r20,13362
   23114:	d8c01e15 	stw	r3,120(sp)
   23118:	d8002015 	stw	zero,128(sp)
   2311c:	d8001f15 	stw	zero,124(sp)
   23120:	d8003315 	stw	zero,204(sp)
   23124:	d8003615 	stw	zero,216(sp)
   23128:	d8003815 	stw	zero,224(sp)
   2312c:	1811883a 	mov	r8,r3
   23130:	d8003915 	stw	zero,228(sp)
   23134:	d8003a15 	stw	zero,232(sp)
   23138:	d8002f15 	stw	zero,188(sp)
   2313c:	d9002815 	stw	r4,160(sp)
   23140:	a8800007 	ldb	r2,0(r21)
   23144:	10027b26 	beq	r2,zero,23b34 <___vfprintf_internal_r+0xad4>
   23148:	00c00944 	movi	r3,37
   2314c:	a821883a 	mov	r16,r21
   23150:	10c0021e 	bne	r2,r3,2315c <___vfprintf_internal_r+0xfc>
   23154:	00001406 	br	231a8 <___vfprintf_internal_r+0x148>
   23158:	10c00326 	beq	r2,r3,23168 <___vfprintf_internal_r+0x108>
   2315c:	84000044 	addi	r16,r16,1
   23160:	80800007 	ldb	r2,0(r16)
   23164:	103ffc1e 	bne	r2,zero,23158 <___vfprintf_internal_r+0xf8>
   23168:	8563c83a 	sub	r17,r16,r21
   2316c:	88000e26 	beq	r17,zero,231a8 <___vfprintf_internal_r+0x148>
   23170:	d8c02017 	ldw	r3,128(sp)
   23174:	d8801f17 	ldw	r2,124(sp)
   23178:	45400015 	stw	r21,0(r8)
   2317c:	1c47883a 	add	r3,r3,r17
   23180:	10800044 	addi	r2,r2,1
   23184:	d8c02015 	stw	r3,128(sp)
   23188:	44400115 	stw	r17,4(r8)
   2318c:	d8801f15 	stw	r2,124(sp)
   23190:	00c001c4 	movi	r3,7
   23194:	1880a716 	blt	r3,r2,23434 <___vfprintf_internal_r+0x3d4>
   23198:	42000204 	addi	r8,r8,8
   2319c:	d9402f17 	ldw	r5,188(sp)
   231a0:	2c4b883a 	add	r5,r5,r17
   231a4:	d9402f15 	stw	r5,188(sp)
   231a8:	80800007 	ldb	r2,0(r16)
   231ac:	1000a826 	beq	r2,zero,23450 <___vfprintf_internal_r+0x3f0>
   231b0:	84400047 	ldb	r17,1(r16)
   231b4:	00bfffc4 	movi	r2,-1
   231b8:	85400044 	addi	r21,r16,1
   231bc:	d8002785 	stb	zero,158(sp)
   231c0:	0007883a 	mov	r3,zero
   231c4:	000f883a 	mov	r7,zero
   231c8:	d8802915 	stw	r2,164(sp)
   231cc:	d8003115 	stw	zero,196(sp)
   231d0:	0025883a 	mov	r18,zero
   231d4:	01401604 	movi	r5,88
   231d8:	01800244 	movi	r6,9
   231dc:	02800a84 	movi	r10,42
   231e0:	02401b04 	movi	r9,108
   231e4:	ad400044 	addi	r21,r21,1
   231e8:	88bff804 	addi	r2,r17,-32
   231ec:	28830436 	bltu	r5,r2,23e00 <___vfprintf_internal_r+0xda0>
   231f0:	100490ba 	slli	r2,r2,2
   231f4:	010000b4 	movhi	r4,2
   231f8:	210c8204 	addi	r4,r4,12808
   231fc:	1105883a 	add	r2,r2,r4
   23200:	10800017 	ldw	r2,0(r2)
   23204:	1000683a 	jmp	r2
   23208:	00023d20 	cmpeqi	zero,zero,2292
   2320c:	00023e00 	call	23e0 <__alt_mem_MEMOIRE_ONCHIP-0x1dc20>
   23210:	00023e00 	call	23e0 <__alt_mem_MEMOIRE_ONCHIP-0x1dc20>
   23214:	00023d40 	call	23d4 <__alt_mem_MEMOIRE_ONCHIP-0x1dc2c>
   23218:	00023e00 	call	23e0 <__alt_mem_MEMOIRE_ONCHIP-0x1dc20>
   2321c:	00023e00 	call	23e0 <__alt_mem_MEMOIRE_ONCHIP-0x1dc20>
   23220:	00023e00 	call	23e0 <__alt_mem_MEMOIRE_ONCHIP-0x1dc20>
   23224:	00023e00 	call	23e0 <__alt_mem_MEMOIRE_ONCHIP-0x1dc20>
   23228:	00023e00 	call	23e0 <__alt_mem_MEMOIRE_ONCHIP-0x1dc20>
   2322c:	00023e00 	call	23e0 <__alt_mem_MEMOIRE_ONCHIP-0x1dc20>
   23230:	000234b4 	movhi	zero,2258
   23234:	00023c5c 	xori	zero,zero,2289
   23238:	00023e00 	call	23e0 <__alt_mem_MEMOIRE_ONCHIP-0x1dc20>
   2323c:	0002337c 	xorhi	zero,zero,2253
   23240:	000234dc 	xori	zero,zero,2259
   23244:	00023e00 	call	23e0 <__alt_mem_MEMOIRE_ONCHIP-0x1dc20>
   23248:	0002351c 	xori	zero,zero,2260
   2324c:	00023528 	cmpgeui	zero,zero,2260
   23250:	00023528 	cmpgeui	zero,zero,2260
   23254:	00023528 	cmpgeui	zero,zero,2260
   23258:	00023528 	cmpgeui	zero,zero,2260
   2325c:	00023528 	cmpgeui	zero,zero,2260
   23260:	00023528 	cmpgeui	zero,zero,2260
   23264:	00023528 	cmpgeui	zero,zero,2260
   23268:	00023528 	cmpgeui	zero,zero,2260
   2326c:	00023528 	cmpgeui	zero,zero,2260
   23270:	00023e00 	call	23e0 <__alt_mem_MEMOIRE_ONCHIP-0x1dc20>
   23274:	00023e00 	call	23e0 <__alt_mem_MEMOIRE_ONCHIP-0x1dc20>
   23278:	00023e00 	call	23e0 <__alt_mem_MEMOIRE_ONCHIP-0x1dc20>
   2327c:	00023e00 	call	23e0 <__alt_mem_MEMOIRE_ONCHIP-0x1dc20>
   23280:	00023e00 	call	23e0 <__alt_mem_MEMOIRE_ONCHIP-0x1dc20>
   23284:	00023e00 	call	23e0 <__alt_mem_MEMOIRE_ONCHIP-0x1dc20>
   23288:	00023e00 	call	23e0 <__alt_mem_MEMOIRE_ONCHIP-0x1dc20>
   2328c:	00023e00 	call	23e0 <__alt_mem_MEMOIRE_ONCHIP-0x1dc20>
   23290:	00023e00 	call	23e0 <__alt_mem_MEMOIRE_ONCHIP-0x1dc20>
   23294:	00023e00 	call	23e0 <__alt_mem_MEMOIRE_ONCHIP-0x1dc20>
   23298:	0002355c 	xori	zero,zero,2261
   2329c:	00023618 	cmpnei	zero,zero,2264
   232a0:	00023e00 	call	23e0 <__alt_mem_MEMOIRE_ONCHIP-0x1dc20>
   232a4:	00023618 	cmpnei	zero,zero,2264
   232a8:	00023e00 	call	23e0 <__alt_mem_MEMOIRE_ONCHIP-0x1dc20>
   232ac:	00023e00 	call	23e0 <__alt_mem_MEMOIRE_ONCHIP-0x1dc20>
   232b0:	00023e00 	call	23e0 <__alt_mem_MEMOIRE_ONCHIP-0x1dc20>
   232b4:	00023e00 	call	23e0 <__alt_mem_MEMOIRE_ONCHIP-0x1dc20>
   232b8:	000236b8 	rdprs	zero,zero,2266
   232bc:	00023e00 	call	23e0 <__alt_mem_MEMOIRE_ONCHIP-0x1dc20>
   232c0:	00023e00 	call	23e0 <__alt_mem_MEMOIRE_ONCHIP-0x1dc20>
   232c4:	000236c4 	movi	zero,2267
   232c8:	00023e00 	call	23e0 <__alt_mem_MEMOIRE_ONCHIP-0x1dc20>
   232cc:	00023e00 	call	23e0 <__alt_mem_MEMOIRE_ONCHIP-0x1dc20>
   232d0:	00023e00 	call	23e0 <__alt_mem_MEMOIRE_ONCHIP-0x1dc20>
   232d4:	00023e00 	call	23e0 <__alt_mem_MEMOIRE_ONCHIP-0x1dc20>
   232d8:	00023e00 	call	23e0 <__alt_mem_MEMOIRE_ONCHIP-0x1dc20>
   232dc:	00023b3c 	xorhi	zero,zero,2284
   232e0:	00023e00 	call	23e0 <__alt_mem_MEMOIRE_ONCHIP-0x1dc20>
   232e4:	00023e00 	call	23e0 <__alt_mem_MEMOIRE_ONCHIP-0x1dc20>
   232e8:	00023b9c 	xori	zero,zero,2286
   232ec:	00023e00 	call	23e0 <__alt_mem_MEMOIRE_ONCHIP-0x1dc20>
   232f0:	00023e00 	call	23e0 <__alt_mem_MEMOIRE_ONCHIP-0x1dc20>
   232f4:	00023e00 	call	23e0 <__alt_mem_MEMOIRE_ONCHIP-0x1dc20>
   232f8:	00023e00 	call	23e0 <__alt_mem_MEMOIRE_ONCHIP-0x1dc20>
   232fc:	00023e00 	call	23e0 <__alt_mem_MEMOIRE_ONCHIP-0x1dc20>
   23300:	00023e00 	call	23e0 <__alt_mem_MEMOIRE_ONCHIP-0x1dc20>
   23304:	00023e00 	call	23e0 <__alt_mem_MEMOIRE_ONCHIP-0x1dc20>
   23308:	00023e00 	call	23e0 <__alt_mem_MEMOIRE_ONCHIP-0x1dc20>
   2330c:	00023e00 	call	23e0 <__alt_mem_MEMOIRE_ONCHIP-0x1dc20>
   23310:	00023e00 	call	23e0 <__alt_mem_MEMOIRE_ONCHIP-0x1dc20>
   23314:	00023dac 	andhi	zero,zero,2294
   23318:	00023d4c 	andi	zero,zero,2293
   2331c:	00023618 	cmpnei	zero,zero,2264
   23320:	00023618 	cmpnei	zero,zero,2264
   23324:	00023618 	cmpnei	zero,zero,2264
   23328:	00023d5c 	xori	zero,zero,2293
   2332c:	00023d4c 	andi	zero,zero,2293
   23330:	00023e00 	call	23e0 <__alt_mem_MEMOIRE_ONCHIP-0x1dc20>
   23334:	00023e00 	call	23e0 <__alt_mem_MEMOIRE_ONCHIP-0x1dc20>
   23338:	00023d68 	cmpgeui	zero,zero,2293
   2333c:	00023e00 	call	23e0 <__alt_mem_MEMOIRE_ONCHIP-0x1dc20>
   23340:	00023d78 	rdprs	zero,zero,2293
   23344:	00023c4c 	andi	zero,zero,2289
   23348:	00023388 	cmpgei	zero,zero,2254
   2334c:	00023c6c 	andhi	zero,zero,2289
   23350:	00023e00 	call	23e0 <__alt_mem_MEMOIRE_ONCHIP-0x1dc20>
   23354:	00023c78 	rdprs	zero,zero,2289
   23358:	00023e00 	call	23e0 <__alt_mem_MEMOIRE_ONCHIP-0x1dc20>
   2335c:	00023cd4 	movui	zero,2291
   23360:	00023e00 	call	23e0 <__alt_mem_MEMOIRE_ONCHIP-0x1dc20>
   23364:	00023e00 	call	23e0 <__alt_mem_MEMOIRE_ONCHIP-0x1dc20>
   23368:	00023ce4 	muli	zero,zero,2291
   2336c:	d9003117 	ldw	r4,196(sp)
   23370:	d8802d15 	stw	r2,180(sp)
   23374:	0109c83a 	sub	r4,zero,r4
   23378:	d9003115 	stw	r4,196(sp)
   2337c:	94800114 	ori	r18,r18,4
   23380:	ac400007 	ldb	r17,0(r21)
   23384:	003f9706 	br	231e4 <___vfprintf_internal_r+0x184>
   23388:	00800c04 	movi	r2,48
   2338c:	d9002d17 	ldw	r4,180(sp)
   23390:	d9402917 	ldw	r5,164(sp)
   23394:	d8802705 	stb	r2,156(sp)
   23398:	00801e04 	movi	r2,120
   2339c:	d8802745 	stb	r2,157(sp)
   233a0:	d8002785 	stb	zero,158(sp)
   233a4:	20c00104 	addi	r3,r4,4
   233a8:	24c00017 	ldw	r19,0(r4)
   233ac:	002d883a 	mov	r22,zero
   233b0:	90800094 	ori	r2,r18,2
   233b4:	28029a16 	blt	r5,zero,23e20 <___vfprintf_internal_r+0xdc0>
   233b8:	00bfdfc4 	movi	r2,-129
   233bc:	90a4703a 	and	r18,r18,r2
   233c0:	d8c02d15 	stw	r3,180(sp)
   233c4:	94800094 	ori	r18,r18,2
   233c8:	9802871e 	bne	r19,zero,23de8 <___vfprintf_internal_r+0xd88>
   233cc:	008000f4 	movhi	r2,3
   233d0:	108cfd04 	addi	r2,r2,13300
   233d4:	d8803915 	stw	r2,228(sp)
   233d8:	04401e04 	movi	r17,120
   233dc:	d8802917 	ldw	r2,164(sp)
   233e0:	0039883a 	mov	fp,zero
   233e4:	1001e926 	beq	r2,zero,23b8c <___vfprintf_internal_r+0xb2c>
   233e8:	0027883a 	mov	r19,zero
   233ec:	002d883a 	mov	r22,zero
   233f0:	00020506 	br	23c08 <___vfprintf_internal_r+0xba8>
   233f4:	d9002c17 	ldw	r4,176(sp)
   233f8:	b80b883a 	mov	r5,r23
   233fc:	00253300 	call	25330 <__swsetup_r>
   23400:	1005ac1e 	bne	r2,zero,24ab4 <___vfprintf_internal_r+0x1a54>
   23404:	b880030b 	ldhu	r2,12(r23)
   23408:	00c00284 	movi	r3,10
   2340c:	1080068c 	andi	r2,r2,26
   23410:	10ff3c1e 	bne	r2,r3,23104 <___vfprintf_internal_r+0xa4>
   23414:	b880038f 	ldh	r2,14(r23)
   23418:	103f3a16 	blt	r2,zero,23104 <___vfprintf_internal_r+0xa4>
   2341c:	d9c02d17 	ldw	r7,180(sp)
   23420:	d9002c17 	ldw	r4,176(sp)
   23424:	a80d883a 	mov	r6,r21
   23428:	b80b883a 	mov	r5,r23
   2342c:	00252740 	call	25274 <__sbprintf>
   23430:	00001106 	br	23478 <___vfprintf_internal_r+0x418>
   23434:	d9002c17 	ldw	r4,176(sp)
   23438:	d9801e04 	addi	r6,sp,120
   2343c:	b80b883a 	mov	r5,r23
   23440:	002ba680 	call	2ba68 <__sprint_r>
   23444:	1000081e 	bne	r2,zero,23468 <___vfprintf_internal_r+0x408>
   23448:	da000404 	addi	r8,sp,16
   2344c:	003f5306 	br	2319c <___vfprintf_internal_r+0x13c>
   23450:	d8802017 	ldw	r2,128(sp)
   23454:	10000426 	beq	r2,zero,23468 <___vfprintf_internal_r+0x408>
   23458:	d9002c17 	ldw	r4,176(sp)
   2345c:	d9801e04 	addi	r6,sp,120
   23460:	b80b883a 	mov	r5,r23
   23464:	002ba680 	call	2ba68 <__sprint_r>
   23468:	b880030b 	ldhu	r2,12(r23)
   2346c:	1080100c 	andi	r2,r2,64
   23470:	1005901e 	bne	r2,zero,24ab4 <___vfprintf_internal_r+0x1a54>
   23474:	d8802f17 	ldw	r2,188(sp)
   23478:	dfc04717 	ldw	ra,284(sp)
   2347c:	df004617 	ldw	fp,280(sp)
   23480:	ddc04517 	ldw	r23,276(sp)
   23484:	dd804417 	ldw	r22,272(sp)
   23488:	dd404317 	ldw	r21,268(sp)
   2348c:	dd004217 	ldw	r20,264(sp)
   23490:	dcc04117 	ldw	r19,260(sp)
   23494:	dc804017 	ldw	r18,256(sp)
   23498:	dc403f17 	ldw	r17,252(sp)
   2349c:	dc003e17 	ldw	r16,248(sp)
   234a0:	dec04804 	addi	sp,sp,288
   234a4:	f800283a 	ret
   234a8:	d9002c17 	ldw	r4,176(sp)
   234ac:	00273040 	call	27304 <__sinit>
   234b0:	003f0406 	br	230c4 <___vfprintf_internal_r+0x64>
   234b4:	d8802d17 	ldw	r2,180(sp)
   234b8:	d9002d17 	ldw	r4,180(sp)
   234bc:	10800017 	ldw	r2,0(r2)
   234c0:	d8803115 	stw	r2,196(sp)
   234c4:	20800104 	addi	r2,r4,4
   234c8:	d9003117 	ldw	r4,196(sp)
   234cc:	203fa716 	blt	r4,zero,2336c <___vfprintf_internal_r+0x30c>
   234d0:	d8802d15 	stw	r2,180(sp)
   234d4:	ac400007 	ldb	r17,0(r21)
   234d8:	003f4206 	br	231e4 <___vfprintf_internal_r+0x184>
   234dc:	ac400007 	ldb	r17,0(r21)
   234e0:	aac00044 	addi	r11,r21,1
   234e4:	8a872826 	beq	r17,r10,25188 <___vfprintf_internal_r+0x2128>
   234e8:	88bff404 	addi	r2,r17,-48
   234ec:	0009883a 	mov	r4,zero
   234f0:	30867d36 	bltu	r6,r2,24ee8 <___vfprintf_internal_r+0x1e88>
   234f4:	5c400007 	ldb	r17,0(r11)
   234f8:	210002a4 	muli	r4,r4,10
   234fc:	5d400044 	addi	r21,r11,1
   23500:	a817883a 	mov	r11,r21
   23504:	2089883a 	add	r4,r4,r2
   23508:	88bff404 	addi	r2,r17,-48
   2350c:	30bff92e 	bgeu	r6,r2,234f4 <___vfprintf_internal_r+0x494>
   23510:	2005c916 	blt	r4,zero,24c38 <___vfprintf_internal_r+0x1bd8>
   23514:	d9002915 	stw	r4,164(sp)
   23518:	003f3306 	br	231e8 <___vfprintf_internal_r+0x188>
   2351c:	94802014 	ori	r18,r18,128
   23520:	ac400007 	ldb	r17,0(r21)
   23524:	003f2f06 	br	231e4 <___vfprintf_internal_r+0x184>
   23528:	a809883a 	mov	r4,r21
   2352c:	d8003115 	stw	zero,196(sp)
   23530:	88bff404 	addi	r2,r17,-48
   23534:	0017883a 	mov	r11,zero
   23538:	24400007 	ldb	r17,0(r4)
   2353c:	5ac002a4 	muli	r11,r11,10
   23540:	ad400044 	addi	r21,r21,1
   23544:	a809883a 	mov	r4,r21
   23548:	12d7883a 	add	r11,r2,r11
   2354c:	88bff404 	addi	r2,r17,-48
   23550:	30bff92e 	bgeu	r6,r2,23538 <___vfprintf_internal_r+0x4d8>
   23554:	dac03115 	stw	r11,196(sp)
   23558:	003f2306 	br	231e8 <___vfprintf_internal_r+0x188>
   2355c:	18c03fcc 	andi	r3,r3,255
   23560:	18072b1e 	bne	r3,zero,25210 <___vfprintf_internal_r+0x21b0>
   23564:	94800414 	ori	r18,r18,16
   23568:	9080080c 	andi	r2,r18,32
   2356c:	10037b26 	beq	r2,zero,2435c <___vfprintf_internal_r+0x12fc>
   23570:	d9402d17 	ldw	r5,180(sp)
   23574:	28800117 	ldw	r2,4(r5)
   23578:	2cc00017 	ldw	r19,0(r5)
   2357c:	29400204 	addi	r5,r5,8
   23580:	d9402d15 	stw	r5,180(sp)
   23584:	102d883a 	mov	r22,r2
   23588:	10044b16 	blt	r2,zero,246b8 <___vfprintf_internal_r+0x1658>
   2358c:	d9402917 	ldw	r5,164(sp)
   23590:	df002783 	ldbu	fp,158(sp)
   23594:	2803bc16 	blt	r5,zero,24488 <___vfprintf_internal_r+0x1428>
   23598:	00ffdfc4 	movi	r3,-129
   2359c:	9d84b03a 	or	r2,r19,r22
   235a0:	90e4703a 	and	r18,r18,r3
   235a4:	10017726 	beq	r2,zero,23b84 <___vfprintf_internal_r+0xb24>
   235a8:	b0038326 	beq	r22,zero,243b8 <___vfprintf_internal_r+0x1358>
   235ac:	dc402a15 	stw	r17,168(sp)
   235b0:	dc001e04 	addi	r16,sp,120
   235b4:	b023883a 	mov	r17,r22
   235b8:	402d883a 	mov	r22,r8
   235bc:	9809883a 	mov	r4,r19
   235c0:	880b883a 	mov	r5,r17
   235c4:	01800284 	movi	r6,10
   235c8:	000f883a 	mov	r7,zero
   235cc:	002de600 	call	2de60 <__umoddi3>
   235d0:	10800c04 	addi	r2,r2,48
   235d4:	843fffc4 	addi	r16,r16,-1
   235d8:	9809883a 	mov	r4,r19
   235dc:	880b883a 	mov	r5,r17
   235e0:	80800005 	stb	r2,0(r16)
   235e4:	01800284 	movi	r6,10
   235e8:	000f883a 	mov	r7,zero
   235ec:	002d8e80 	call	2d8e8 <__udivdi3>
   235f0:	1027883a 	mov	r19,r2
   235f4:	10c4b03a 	or	r2,r2,r3
   235f8:	1823883a 	mov	r17,r3
   235fc:	103fef1e 	bne	r2,zero,235bc <___vfprintf_internal_r+0x55c>
   23600:	d8c02817 	ldw	r3,160(sp)
   23604:	dc402a17 	ldw	r17,168(sp)
   23608:	b011883a 	mov	r8,r22
   2360c:	1c07c83a 	sub	r3,r3,r16
   23610:	d8c02e15 	stw	r3,184(sp)
   23614:	00005906 	br	2377c <___vfprintf_internal_r+0x71c>
   23618:	18c03fcc 	andi	r3,r3,255
   2361c:	1806fa1e 	bne	r3,zero,25208 <___vfprintf_internal_r+0x21a8>
   23620:	9080020c 	andi	r2,r18,8
   23624:	10048a26 	beq	r2,zero,24850 <___vfprintf_internal_r+0x17f0>
   23628:	d8c02d17 	ldw	r3,180(sp)
   2362c:	d9002d17 	ldw	r4,180(sp)
   23630:	d9402d17 	ldw	r5,180(sp)
   23634:	18c00017 	ldw	r3,0(r3)
   23638:	21000117 	ldw	r4,4(r4)
   2363c:	29400204 	addi	r5,r5,8
   23640:	d8c03615 	stw	r3,216(sp)
   23644:	d9003815 	stw	r4,224(sp)
   23648:	d9402d15 	stw	r5,180(sp)
   2364c:	d9003617 	ldw	r4,216(sp)
   23650:	d9403817 	ldw	r5,224(sp)
   23654:	da003d15 	stw	r8,244(sp)
   23658:	04000044 	movi	r16,1
   2365c:	002a2800 	call	2a280 <__fpclassifyd>
   23660:	da003d17 	ldw	r8,244(sp)
   23664:	14041f1e 	bne	r2,r16,246e4 <___vfprintf_internal_r+0x1684>
   23668:	d9003617 	ldw	r4,216(sp)
   2366c:	d9403817 	ldw	r5,224(sp)
   23670:	000d883a 	mov	r6,zero
   23674:	000f883a 	mov	r7,zero
   23678:	002f8440 	call	2f844 <__ledf2>
   2367c:	da003d17 	ldw	r8,244(sp)
   23680:	1005be16 	blt	r2,zero,24d7c <___vfprintf_internal_r+0x1d1c>
   23684:	df002783 	ldbu	fp,158(sp)
   23688:	008011c4 	movi	r2,71
   2368c:	1445330e 	bge	r2,r17,24b5c <___vfprintf_internal_r+0x1afc>
   23690:	040000f4 	movhi	r16,3
   23694:	840cf504 	addi	r16,r16,13268
   23698:	00c000c4 	movi	r3,3
   2369c:	00bfdfc4 	movi	r2,-129
   236a0:	d8c02a15 	stw	r3,168(sp)
   236a4:	90a4703a 	and	r18,r18,r2
   236a8:	d8c02e15 	stw	r3,184(sp)
   236ac:	d8002915 	stw	zero,164(sp)
   236b0:	d8003215 	stw	zero,200(sp)
   236b4:	00003706 	br	23794 <___vfprintf_internal_r+0x734>
   236b8:	94800214 	ori	r18,r18,8
   236bc:	ac400007 	ldb	r17,0(r21)
   236c0:	003ec806 	br	231e4 <___vfprintf_internal_r+0x184>
   236c4:	18c03fcc 	andi	r3,r3,255
   236c8:	1806db1e 	bne	r3,zero,25238 <___vfprintf_internal_r+0x21d8>
   236cc:	94800414 	ori	r18,r18,16
   236d0:	9080080c 	andi	r2,r18,32
   236d4:	1002d826 	beq	r2,zero,24238 <___vfprintf_internal_r+0x11d8>
   236d8:	d9402d17 	ldw	r5,180(sp)
   236dc:	d8c02917 	ldw	r3,164(sp)
   236e0:	d8002785 	stb	zero,158(sp)
   236e4:	28800204 	addi	r2,r5,8
   236e8:	2cc00017 	ldw	r19,0(r5)
   236ec:	2d800117 	ldw	r22,4(r5)
   236f0:	18048f16 	blt	r3,zero,24930 <___vfprintf_internal_r+0x18d0>
   236f4:	013fdfc4 	movi	r4,-129
   236f8:	9d86b03a 	or	r3,r19,r22
   236fc:	d8802d15 	stw	r2,180(sp)
   23700:	9124703a 	and	r18,r18,r4
   23704:	1802d91e 	bne	r3,zero,2426c <___vfprintf_internal_r+0x120c>
   23708:	d8c02917 	ldw	r3,164(sp)
   2370c:	0039883a 	mov	fp,zero
   23710:	1805c326 	beq	r3,zero,24e20 <___vfprintf_internal_r+0x1dc0>
   23714:	0027883a 	mov	r19,zero
   23718:	002d883a 	mov	r22,zero
   2371c:	dc001e04 	addi	r16,sp,120
   23720:	9806d0fa 	srli	r3,r19,3
   23724:	b008977a 	slli	r4,r22,29
   23728:	b02cd0fa 	srli	r22,r22,3
   2372c:	9cc001cc 	andi	r19,r19,7
   23730:	98800c04 	addi	r2,r19,48
   23734:	843fffc4 	addi	r16,r16,-1
   23738:	20e6b03a 	or	r19,r4,r3
   2373c:	80800005 	stb	r2,0(r16)
   23740:	9d86b03a 	or	r3,r19,r22
   23744:	183ff61e 	bne	r3,zero,23720 <___vfprintf_internal_r+0x6c0>
   23748:	90c0004c 	andi	r3,r18,1
   2374c:	18013b26 	beq	r3,zero,23c3c <___vfprintf_internal_r+0xbdc>
   23750:	10803fcc 	andi	r2,r2,255
   23754:	1080201c 	xori	r2,r2,128
   23758:	10bfe004 	addi	r2,r2,-128
   2375c:	00c00c04 	movi	r3,48
   23760:	10c13626 	beq	r2,r3,23c3c <___vfprintf_internal_r+0xbdc>
   23764:	80ffffc5 	stb	r3,-1(r16)
   23768:	d8c02817 	ldw	r3,160(sp)
   2376c:	80bfffc4 	addi	r2,r16,-1
   23770:	1021883a 	mov	r16,r2
   23774:	1887c83a 	sub	r3,r3,r2
   23778:	d8c02e15 	stw	r3,184(sp)
   2377c:	d8802e17 	ldw	r2,184(sp)
   23780:	d9002917 	ldw	r4,164(sp)
   23784:	1100010e 	bge	r2,r4,2378c <___vfprintf_internal_r+0x72c>
   23788:	2005883a 	mov	r2,r4
   2378c:	d8802a15 	stw	r2,168(sp)
   23790:	d8003215 	stw	zero,200(sp)
   23794:	e7003fcc 	andi	fp,fp,255
   23798:	e700201c 	xori	fp,fp,128
   2379c:	e73fe004 	addi	fp,fp,-128
   237a0:	e0000326 	beq	fp,zero,237b0 <___vfprintf_internal_r+0x750>
   237a4:	d8c02a17 	ldw	r3,168(sp)
   237a8:	18c00044 	addi	r3,r3,1
   237ac:	d8c02a15 	stw	r3,168(sp)
   237b0:	90c0008c 	andi	r3,r18,2
   237b4:	d8c02b15 	stw	r3,172(sp)
   237b8:	18000326 	beq	r3,zero,237c8 <___vfprintf_internal_r+0x768>
   237bc:	d8c02a17 	ldw	r3,168(sp)
   237c0:	18c00084 	addi	r3,r3,2
   237c4:	d8c02a15 	stw	r3,168(sp)
   237c8:	90c0210c 	andi	r3,r18,132
   237cc:	d8c03015 	stw	r3,192(sp)
   237d0:	1801a31e 	bne	r3,zero,23e60 <___vfprintf_internal_r+0xe00>
   237d4:	d9003117 	ldw	r4,196(sp)
   237d8:	d8c02a17 	ldw	r3,168(sp)
   237dc:	20e7c83a 	sub	r19,r4,r3
   237e0:	04c19f0e 	bge	zero,r19,23e60 <___vfprintf_internal_r+0xe00>
   237e4:	02400404 	movi	r9,16
   237e8:	d8c02017 	ldw	r3,128(sp)
   237ec:	d8801f17 	ldw	r2,124(sp)
   237f0:	4cc50d0e 	bge	r9,r19,24c28 <___vfprintf_internal_r+0x1bc8>
   237f4:	014000f4 	movhi	r5,3
   237f8:	294d1084 	addi	r5,r5,13378
   237fc:	dc403b15 	stw	r17,236(sp)
   23800:	d9403515 	stw	r5,212(sp)
   23804:	9823883a 	mov	r17,r19
   23808:	482d883a 	mov	r22,r9
   2380c:	9027883a 	mov	r19,r18
   23810:	070001c4 	movi	fp,7
   23814:	8025883a 	mov	r18,r16
   23818:	dc002c17 	ldw	r16,176(sp)
   2381c:	00000306 	br	2382c <___vfprintf_internal_r+0x7cc>
   23820:	8c7ffc04 	addi	r17,r17,-16
   23824:	42000204 	addi	r8,r8,8
   23828:	b440130e 	bge	r22,r17,23878 <___vfprintf_internal_r+0x818>
   2382c:	010000f4 	movhi	r4,3
   23830:	18c00404 	addi	r3,r3,16
   23834:	10800044 	addi	r2,r2,1
   23838:	210d1084 	addi	r4,r4,13378
   2383c:	41000015 	stw	r4,0(r8)
   23840:	45800115 	stw	r22,4(r8)
   23844:	d8c02015 	stw	r3,128(sp)
   23848:	d8801f15 	stw	r2,124(sp)
   2384c:	e0bff40e 	bge	fp,r2,23820 <___vfprintf_internal_r+0x7c0>
   23850:	d9801e04 	addi	r6,sp,120
   23854:	b80b883a 	mov	r5,r23
   23858:	8009883a 	mov	r4,r16
   2385c:	002ba680 	call	2ba68 <__sprint_r>
   23860:	103f011e 	bne	r2,zero,23468 <___vfprintf_internal_r+0x408>
   23864:	8c7ffc04 	addi	r17,r17,-16
   23868:	d8c02017 	ldw	r3,128(sp)
   2386c:	d8801f17 	ldw	r2,124(sp)
   23870:	da000404 	addi	r8,sp,16
   23874:	b47fed16 	blt	r22,r17,2382c <___vfprintf_internal_r+0x7cc>
   23878:	9021883a 	mov	r16,r18
   2387c:	9825883a 	mov	r18,r19
   23880:	8827883a 	mov	r19,r17
   23884:	dc403b17 	ldw	r17,236(sp)
   23888:	d9403517 	ldw	r5,212(sp)
   2388c:	98c7883a 	add	r3,r19,r3
   23890:	10800044 	addi	r2,r2,1
   23894:	41400015 	stw	r5,0(r8)
   23898:	44c00115 	stw	r19,4(r8)
   2389c:	d8c02015 	stw	r3,128(sp)
   238a0:	d8801f15 	stw	r2,124(sp)
   238a4:	010001c4 	movi	r4,7
   238a8:	2082a316 	blt	r4,r2,24338 <___vfprintf_internal_r+0x12d8>
   238ac:	df002787 	ldb	fp,158(sp)
   238b0:	42000204 	addi	r8,r8,8
   238b4:	e0000c26 	beq	fp,zero,238e8 <___vfprintf_internal_r+0x888>
   238b8:	d8801f17 	ldw	r2,124(sp)
   238bc:	d9002784 	addi	r4,sp,158
   238c0:	18c00044 	addi	r3,r3,1
   238c4:	10800044 	addi	r2,r2,1
   238c8:	41000015 	stw	r4,0(r8)
   238cc:	01000044 	movi	r4,1
   238d0:	41000115 	stw	r4,4(r8)
   238d4:	d8c02015 	stw	r3,128(sp)
   238d8:	d8801f15 	stw	r2,124(sp)
   238dc:	010001c4 	movi	r4,7
   238e0:	20823c16 	blt	r4,r2,241d4 <___vfprintf_internal_r+0x1174>
   238e4:	42000204 	addi	r8,r8,8
   238e8:	d8802b17 	ldw	r2,172(sp)
   238ec:	10000c26 	beq	r2,zero,23920 <___vfprintf_internal_r+0x8c0>
   238f0:	d8801f17 	ldw	r2,124(sp)
   238f4:	d9002704 	addi	r4,sp,156
   238f8:	18c00084 	addi	r3,r3,2
   238fc:	10800044 	addi	r2,r2,1
   23900:	41000015 	stw	r4,0(r8)
   23904:	01000084 	movi	r4,2
   23908:	41000115 	stw	r4,4(r8)
   2390c:	d8c02015 	stw	r3,128(sp)
   23910:	d8801f15 	stw	r2,124(sp)
   23914:	010001c4 	movi	r4,7
   23918:	20823616 	blt	r4,r2,241f4 <___vfprintf_internal_r+0x1194>
   2391c:	42000204 	addi	r8,r8,8
   23920:	d9003017 	ldw	r4,192(sp)
   23924:	00802004 	movi	r2,128
   23928:	20819926 	beq	r4,r2,23f90 <___vfprintf_internal_r+0xf30>
   2392c:	d9402917 	ldw	r5,164(sp)
   23930:	d8802e17 	ldw	r2,184(sp)
   23934:	28adc83a 	sub	r22,r5,r2
   23938:	0580310e 	bge	zero,r22,23a00 <___vfprintf_internal_r+0x9a0>
   2393c:	07000404 	movi	fp,16
   23940:	d8801f17 	ldw	r2,124(sp)
   23944:	e584140e 	bge	fp,r22,24998 <___vfprintf_internal_r+0x1938>
   23948:	014000f4 	movhi	r5,3
   2394c:	294d0c84 	addi	r5,r5,13362
   23950:	dc402915 	stw	r17,164(sp)
   23954:	d9402b15 	stw	r5,172(sp)
   23958:	b023883a 	mov	r17,r22
   2395c:	04c001c4 	movi	r19,7
   23960:	a82d883a 	mov	r22,r21
   23964:	902b883a 	mov	r21,r18
   23968:	8025883a 	mov	r18,r16
   2396c:	dc002c17 	ldw	r16,176(sp)
   23970:	00000306 	br	23980 <___vfprintf_internal_r+0x920>
   23974:	8c7ffc04 	addi	r17,r17,-16
   23978:	42000204 	addi	r8,r8,8
   2397c:	e440110e 	bge	fp,r17,239c4 <___vfprintf_internal_r+0x964>
   23980:	18c00404 	addi	r3,r3,16
   23984:	10800044 	addi	r2,r2,1
   23988:	45000015 	stw	r20,0(r8)
   2398c:	47000115 	stw	fp,4(r8)
   23990:	d8c02015 	stw	r3,128(sp)
   23994:	d8801f15 	stw	r2,124(sp)
   23998:	98bff60e 	bge	r19,r2,23974 <___vfprintf_internal_r+0x914>
   2399c:	d9801e04 	addi	r6,sp,120
   239a0:	b80b883a 	mov	r5,r23
   239a4:	8009883a 	mov	r4,r16
   239a8:	002ba680 	call	2ba68 <__sprint_r>
   239ac:	103eae1e 	bne	r2,zero,23468 <___vfprintf_internal_r+0x408>
   239b0:	8c7ffc04 	addi	r17,r17,-16
   239b4:	d8c02017 	ldw	r3,128(sp)
   239b8:	d8801f17 	ldw	r2,124(sp)
   239bc:	da000404 	addi	r8,sp,16
   239c0:	e47fef16 	blt	fp,r17,23980 <___vfprintf_internal_r+0x920>
   239c4:	9021883a 	mov	r16,r18
   239c8:	a825883a 	mov	r18,r21
   239cc:	b02b883a 	mov	r21,r22
   239d0:	882d883a 	mov	r22,r17
   239d4:	dc402917 	ldw	r17,164(sp)
   239d8:	d9002b17 	ldw	r4,172(sp)
   239dc:	1d87883a 	add	r3,r3,r22
   239e0:	10800044 	addi	r2,r2,1
   239e4:	41000015 	stw	r4,0(r8)
   239e8:	45800115 	stw	r22,4(r8)
   239ec:	d8c02015 	stw	r3,128(sp)
   239f0:	d8801f15 	stw	r2,124(sp)
   239f4:	010001c4 	movi	r4,7
   239f8:	2081ee16 	blt	r4,r2,241b4 <___vfprintf_internal_r+0x1154>
   239fc:	42000204 	addi	r8,r8,8
   23a00:	9080400c 	andi	r2,r18,256
   23a04:	1001181e 	bne	r2,zero,23e68 <___vfprintf_internal_r+0xe08>
   23a08:	d9402e17 	ldw	r5,184(sp)
   23a0c:	d8801f17 	ldw	r2,124(sp)
   23a10:	44000015 	stw	r16,0(r8)
   23a14:	1947883a 	add	r3,r3,r5
   23a18:	10800044 	addi	r2,r2,1
   23a1c:	41400115 	stw	r5,4(r8)
   23a20:	d8c02015 	stw	r3,128(sp)
   23a24:	d8801f15 	stw	r2,124(sp)
   23a28:	010001c4 	movi	r4,7
   23a2c:	2081d316 	blt	r4,r2,2417c <___vfprintf_internal_r+0x111c>
   23a30:	42000204 	addi	r8,r8,8
   23a34:	9480010c 	andi	r18,r18,4
   23a38:	90003226 	beq	r18,zero,23b04 <___vfprintf_internal_r+0xaa4>
   23a3c:	d9403117 	ldw	r5,196(sp)
   23a40:	d8802a17 	ldw	r2,168(sp)
   23a44:	28a1c83a 	sub	r16,r5,r2
   23a48:	04002e0e 	bge	zero,r16,23b04 <___vfprintf_internal_r+0xaa4>
   23a4c:	04400404 	movi	r17,16
   23a50:	d8801f17 	ldw	r2,124(sp)
   23a54:	8c04a20e 	bge	r17,r16,24ce0 <___vfprintf_internal_r+0x1c80>
   23a58:	014000f4 	movhi	r5,3
   23a5c:	294d1084 	addi	r5,r5,13378
   23a60:	d9403515 	stw	r5,212(sp)
   23a64:	048001c4 	movi	r18,7
   23a68:	dcc02c17 	ldw	r19,176(sp)
   23a6c:	00000306 	br	23a7c <___vfprintf_internal_r+0xa1c>
   23a70:	843ffc04 	addi	r16,r16,-16
   23a74:	42000204 	addi	r8,r8,8
   23a78:	8c00130e 	bge	r17,r16,23ac8 <___vfprintf_internal_r+0xa68>
   23a7c:	010000f4 	movhi	r4,3
   23a80:	18c00404 	addi	r3,r3,16
   23a84:	10800044 	addi	r2,r2,1
   23a88:	210d1084 	addi	r4,r4,13378
   23a8c:	41000015 	stw	r4,0(r8)
   23a90:	44400115 	stw	r17,4(r8)
   23a94:	d8c02015 	stw	r3,128(sp)
   23a98:	d8801f15 	stw	r2,124(sp)
   23a9c:	90bff40e 	bge	r18,r2,23a70 <___vfprintf_internal_r+0xa10>
   23aa0:	d9801e04 	addi	r6,sp,120
   23aa4:	b80b883a 	mov	r5,r23
   23aa8:	9809883a 	mov	r4,r19
   23aac:	002ba680 	call	2ba68 <__sprint_r>
   23ab0:	103e6d1e 	bne	r2,zero,23468 <___vfprintf_internal_r+0x408>
   23ab4:	843ffc04 	addi	r16,r16,-16
   23ab8:	d8c02017 	ldw	r3,128(sp)
   23abc:	d8801f17 	ldw	r2,124(sp)
   23ac0:	da000404 	addi	r8,sp,16
   23ac4:	8c3fed16 	blt	r17,r16,23a7c <___vfprintf_internal_r+0xa1c>
   23ac8:	d9403517 	ldw	r5,212(sp)
   23acc:	1c07883a 	add	r3,r3,r16
   23ad0:	10800044 	addi	r2,r2,1
   23ad4:	41400015 	stw	r5,0(r8)
   23ad8:	44000115 	stw	r16,4(r8)
   23adc:	d8c02015 	stw	r3,128(sp)
   23ae0:	d8801f15 	stw	r2,124(sp)
   23ae4:	010001c4 	movi	r4,7
   23ae8:	2080060e 	bge	r4,r2,23b04 <___vfprintf_internal_r+0xaa4>
   23aec:	d9002c17 	ldw	r4,176(sp)
   23af0:	d9801e04 	addi	r6,sp,120
   23af4:	b80b883a 	mov	r5,r23
   23af8:	002ba680 	call	2ba68 <__sprint_r>
   23afc:	103e5a1e 	bne	r2,zero,23468 <___vfprintf_internal_r+0x408>
   23b00:	d8c02017 	ldw	r3,128(sp)
   23b04:	d8803117 	ldw	r2,196(sp)
   23b08:	d9002a17 	ldw	r4,168(sp)
   23b0c:	1100010e 	bge	r2,r4,23b14 <___vfprintf_internal_r+0xab4>
   23b10:	2005883a 	mov	r2,r4
   23b14:	d9402f17 	ldw	r5,188(sp)
   23b18:	288b883a 	add	r5,r5,r2
   23b1c:	d9402f15 	stw	r5,188(sp)
   23b20:	18019e1e 	bne	r3,zero,2419c <___vfprintf_internal_r+0x113c>
   23b24:	a8800007 	ldb	r2,0(r21)
   23b28:	d8001f15 	stw	zero,124(sp)
   23b2c:	da000404 	addi	r8,sp,16
   23b30:	103d851e 	bne	r2,zero,23148 <___vfprintf_internal_r+0xe8>
   23b34:	a821883a 	mov	r16,r21
   23b38:	003d9b06 	br	231a8 <___vfprintf_internal_r+0x148>
   23b3c:	18c03fcc 	andi	r3,r3,255
   23b40:	1805c11e 	bne	r3,zero,25248 <___vfprintf_internal_r+0x21e8>
   23b44:	94800414 	ori	r18,r18,16
   23b48:	9080080c 	andi	r2,r18,32
   23b4c:	10020c26 	beq	r2,zero,24380 <___vfprintf_internal_r+0x1320>
   23b50:	d8802d17 	ldw	r2,180(sp)
   23b54:	d9002917 	ldw	r4,164(sp)
   23b58:	d8002785 	stb	zero,158(sp)
   23b5c:	10c00204 	addi	r3,r2,8
   23b60:	14c00017 	ldw	r19,0(r2)
   23b64:	15800117 	ldw	r22,4(r2)
   23b68:	20040f16 	blt	r4,zero,24ba8 <___vfprintf_internal_r+0x1b48>
   23b6c:	013fdfc4 	movi	r4,-129
   23b70:	9d84b03a 	or	r2,r19,r22
   23b74:	d8c02d15 	stw	r3,180(sp)
   23b78:	9124703a 	and	r18,r18,r4
   23b7c:	0039883a 	mov	fp,zero
   23b80:	103e891e 	bne	r2,zero,235a8 <___vfprintf_internal_r+0x548>
   23b84:	d9002917 	ldw	r4,164(sp)
   23b88:	2002c11e 	bne	r4,zero,24690 <___vfprintf_internal_r+0x1630>
   23b8c:	d8002915 	stw	zero,164(sp)
   23b90:	d8002e15 	stw	zero,184(sp)
   23b94:	dc001e04 	addi	r16,sp,120
   23b98:	003ef806 	br	2377c <___vfprintf_internal_r+0x71c>
   23b9c:	18c03fcc 	andi	r3,r3,255
   23ba0:	18059d1e 	bne	r3,zero,25218 <___vfprintf_internal_r+0x21b8>
   23ba4:	014000f4 	movhi	r5,3
   23ba8:	294cf804 	addi	r5,r5,13280
   23bac:	d9403915 	stw	r5,228(sp)
   23bb0:	9080080c 	andi	r2,r18,32
   23bb4:	10005226 	beq	r2,zero,23d00 <___vfprintf_internal_r+0xca0>
   23bb8:	d8802d17 	ldw	r2,180(sp)
   23bbc:	14c00017 	ldw	r19,0(r2)
   23bc0:	15800117 	ldw	r22,4(r2)
   23bc4:	10800204 	addi	r2,r2,8
   23bc8:	d8802d15 	stw	r2,180(sp)
   23bcc:	9080004c 	andi	r2,r18,1
   23bd0:	10019026 	beq	r2,zero,24214 <___vfprintf_internal_r+0x11b4>
   23bd4:	9d84b03a 	or	r2,r19,r22
   23bd8:	10036926 	beq	r2,zero,24980 <___vfprintf_internal_r+0x1920>
   23bdc:	d8c02917 	ldw	r3,164(sp)
   23be0:	00800c04 	movi	r2,48
   23be4:	d8802705 	stb	r2,156(sp)
   23be8:	dc402745 	stb	r17,157(sp)
   23bec:	d8002785 	stb	zero,158(sp)
   23bf0:	90800094 	ori	r2,r18,2
   23bf4:	18045d16 	blt	r3,zero,24d6c <___vfprintf_internal_r+0x1d0c>
   23bf8:	00bfdfc4 	movi	r2,-129
   23bfc:	90a4703a 	and	r18,r18,r2
   23c00:	94800094 	ori	r18,r18,2
   23c04:	0039883a 	mov	fp,zero
   23c08:	d9003917 	ldw	r4,228(sp)
   23c0c:	dc001e04 	addi	r16,sp,120
   23c10:	988003cc 	andi	r2,r19,15
   23c14:	b006973a 	slli	r3,r22,28
   23c18:	2085883a 	add	r2,r4,r2
   23c1c:	9826d13a 	srli	r19,r19,4
   23c20:	10800003 	ldbu	r2,0(r2)
   23c24:	b02cd13a 	srli	r22,r22,4
   23c28:	843fffc4 	addi	r16,r16,-1
   23c2c:	1ce6b03a 	or	r19,r3,r19
   23c30:	80800005 	stb	r2,0(r16)
   23c34:	9d84b03a 	or	r2,r19,r22
   23c38:	103ff51e 	bne	r2,zero,23c10 <___vfprintf_internal_r+0xbb0>
   23c3c:	d8c02817 	ldw	r3,160(sp)
   23c40:	1c07c83a 	sub	r3,r3,r16
   23c44:	d8c02e15 	stw	r3,184(sp)
   23c48:	003ecc06 	br	2377c <___vfprintf_internal_r+0x71c>
   23c4c:	18c03fcc 	andi	r3,r3,255
   23c50:	183e9f26 	beq	r3,zero,236d0 <___vfprintf_internal_r+0x670>
   23c54:	d9c02785 	stb	r7,158(sp)
   23c58:	003e9d06 	br	236d0 <___vfprintf_internal_r+0x670>
   23c5c:	00c00044 	movi	r3,1
   23c60:	01c00ac4 	movi	r7,43
   23c64:	ac400007 	ldb	r17,0(r21)
   23c68:	003d5e06 	br	231e4 <___vfprintf_internal_r+0x184>
   23c6c:	94800814 	ori	r18,r18,32
   23c70:	ac400007 	ldb	r17,0(r21)
   23c74:	003d5b06 	br	231e4 <___vfprintf_internal_r+0x184>
   23c78:	d8c02d17 	ldw	r3,180(sp)
   23c7c:	d8002785 	stb	zero,158(sp)
   23c80:	1c000017 	ldw	r16,0(r3)
   23c84:	1cc00104 	addi	r19,r3,4
   23c88:	80041926 	beq	r16,zero,24cf0 <___vfprintf_internal_r+0x1c90>
   23c8c:	d9002917 	ldw	r4,164(sp)
   23c90:	2003d016 	blt	r4,zero,24bd4 <___vfprintf_internal_r+0x1b74>
   23c94:	200d883a 	mov	r6,r4
   23c98:	000b883a 	mov	r5,zero
   23c9c:	8009883a 	mov	r4,r16
   23ca0:	da003d15 	stw	r8,244(sp)
   23ca4:	00288700 	call	28870 <memchr>
   23ca8:	da003d17 	ldw	r8,244(sp)
   23cac:	10045426 	beq	r2,zero,24e00 <___vfprintf_internal_r+0x1da0>
   23cb0:	1405c83a 	sub	r2,r2,r16
   23cb4:	d8802e15 	stw	r2,184(sp)
   23cb8:	1003cc16 	blt	r2,zero,24bec <___vfprintf_internal_r+0x1b8c>
   23cbc:	df002783 	ldbu	fp,158(sp)
   23cc0:	d8802a15 	stw	r2,168(sp)
   23cc4:	dcc02d15 	stw	r19,180(sp)
   23cc8:	d8002915 	stw	zero,164(sp)
   23ccc:	d8003215 	stw	zero,200(sp)
   23cd0:	003eb006 	br	23794 <___vfprintf_internal_r+0x734>
   23cd4:	18c03fcc 	andi	r3,r3,255
   23cd8:	183f9b26 	beq	r3,zero,23b48 <___vfprintf_internal_r+0xae8>
   23cdc:	d9c02785 	stb	r7,158(sp)
   23ce0:	003f9906 	br	23b48 <___vfprintf_internal_r+0xae8>
   23ce4:	18c03fcc 	andi	r3,r3,255
   23ce8:	1805551e 	bne	r3,zero,25240 <___vfprintf_internal_r+0x21e0>
   23cec:	014000f4 	movhi	r5,3
   23cf0:	294cfd04 	addi	r5,r5,13300
   23cf4:	d9403915 	stw	r5,228(sp)
   23cf8:	9080080c 	andi	r2,r18,32
   23cfc:	103fae1e 	bne	r2,zero,23bb8 <___vfprintf_internal_r+0xb58>
   23d00:	9080040c 	andi	r2,r18,16
   23d04:	1002de26 	beq	r2,zero,24880 <___vfprintf_internal_r+0x1820>
   23d08:	d8c02d17 	ldw	r3,180(sp)
   23d0c:	002d883a 	mov	r22,zero
   23d10:	1cc00017 	ldw	r19,0(r3)
   23d14:	18c00104 	addi	r3,r3,4
   23d18:	d8c02d15 	stw	r3,180(sp)
   23d1c:	003fab06 	br	23bcc <___vfprintf_internal_r+0xb6c>
   23d20:	38803fcc 	andi	r2,r7,255
   23d24:	1080201c 	xori	r2,r2,128
   23d28:	10bfe004 	addi	r2,r2,-128
   23d2c:	1002d21e 	bne	r2,zero,24878 <___vfprintf_internal_r+0x1818>
   23d30:	00c00044 	movi	r3,1
   23d34:	01c00804 	movi	r7,32
   23d38:	ac400007 	ldb	r17,0(r21)
   23d3c:	003d2906 	br	231e4 <___vfprintf_internal_r+0x184>
   23d40:	94800054 	ori	r18,r18,1
   23d44:	ac400007 	ldb	r17,0(r21)
   23d48:	003d2606 	br	231e4 <___vfprintf_internal_r+0x184>
   23d4c:	18c03fcc 	andi	r3,r3,255
   23d50:	183e0526 	beq	r3,zero,23568 <___vfprintf_internal_r+0x508>
   23d54:	d9c02785 	stb	r7,158(sp)
   23d58:	003e0306 	br	23568 <___vfprintf_internal_r+0x508>
   23d5c:	94801014 	ori	r18,r18,64
   23d60:	ac400007 	ldb	r17,0(r21)
   23d64:	003d1f06 	br	231e4 <___vfprintf_internal_r+0x184>
   23d68:	ac400007 	ldb	r17,0(r21)
   23d6c:	8a438726 	beq	r17,r9,24b8c <___vfprintf_internal_r+0x1b2c>
   23d70:	94800414 	ori	r18,r18,16
   23d74:	003d1b06 	br	231e4 <___vfprintf_internal_r+0x184>
   23d78:	18c03fcc 	andi	r3,r3,255
   23d7c:	1805341e 	bne	r3,zero,25250 <___vfprintf_internal_r+0x21f0>
   23d80:	9080080c 	andi	r2,r18,32
   23d84:	1002cd26 	beq	r2,zero,248bc <___vfprintf_internal_r+0x185c>
   23d88:	d9402d17 	ldw	r5,180(sp)
   23d8c:	d9002f17 	ldw	r4,188(sp)
   23d90:	28800017 	ldw	r2,0(r5)
   23d94:	2007d7fa 	srai	r3,r4,31
   23d98:	29400104 	addi	r5,r5,4
   23d9c:	d9402d15 	stw	r5,180(sp)
   23da0:	11000015 	stw	r4,0(r2)
   23da4:	10c00115 	stw	r3,4(r2)
   23da8:	003ce506 	br	23140 <___vfprintf_internal_r+0xe0>
   23dac:	d8c02d17 	ldw	r3,180(sp)
   23db0:	d9002d17 	ldw	r4,180(sp)
   23db4:	d8002785 	stb	zero,158(sp)
   23db8:	18800017 	ldw	r2,0(r3)
   23dbc:	21000104 	addi	r4,r4,4
   23dc0:	00c00044 	movi	r3,1
   23dc4:	d8c02a15 	stw	r3,168(sp)
   23dc8:	d8801405 	stb	r2,80(sp)
   23dcc:	d9002d15 	stw	r4,180(sp)
   23dd0:	d8c02e15 	stw	r3,184(sp)
   23dd4:	d8002915 	stw	zero,164(sp)
   23dd8:	d8003215 	stw	zero,200(sp)
   23ddc:	dc001404 	addi	r16,sp,80
   23de0:	0039883a 	mov	fp,zero
   23de4:	003e7206 	br	237b0 <___vfprintf_internal_r+0x750>
   23de8:	010000f4 	movhi	r4,3
   23dec:	210cfd04 	addi	r4,r4,13300
   23df0:	0039883a 	mov	fp,zero
   23df4:	d9003915 	stw	r4,228(sp)
   23df8:	04401e04 	movi	r17,120
   23dfc:	003f8206 	br	23c08 <___vfprintf_internal_r+0xba8>
   23e00:	18c03fcc 	andi	r3,r3,255
   23e04:	1805061e 	bne	r3,zero,25220 <___vfprintf_internal_r+0x21c0>
   23e08:	883d9126 	beq	r17,zero,23450 <___vfprintf_internal_r+0x3f0>
   23e0c:	00c00044 	movi	r3,1
   23e10:	d8c02a15 	stw	r3,168(sp)
   23e14:	dc401405 	stb	r17,80(sp)
   23e18:	d8002785 	stb	zero,158(sp)
   23e1c:	003fec06 	br	23dd0 <___vfprintf_internal_r+0xd70>
   23e20:	014000f4 	movhi	r5,3
   23e24:	294cfd04 	addi	r5,r5,13300
   23e28:	d9403915 	stw	r5,228(sp)
   23e2c:	d8c02d15 	stw	r3,180(sp)
   23e30:	1025883a 	mov	r18,r2
   23e34:	04401e04 	movi	r17,120
   23e38:	9d84b03a 	or	r2,r19,r22
   23e3c:	1000fc1e 	bne	r2,zero,24230 <___vfprintf_internal_r+0x11d0>
   23e40:	0039883a 	mov	fp,zero
   23e44:	00800084 	movi	r2,2
   23e48:	10803fcc 	andi	r2,r2,255
   23e4c:	00c00044 	movi	r3,1
   23e50:	10c20f26 	beq	r2,r3,24690 <___vfprintf_internal_r+0x1630>
   23e54:	00c00084 	movi	r3,2
   23e58:	10fd6326 	beq	r2,r3,233e8 <___vfprintf_internal_r+0x388>
   23e5c:	003e2d06 	br	23714 <___vfprintf_internal_r+0x6b4>
   23e60:	d8c02017 	ldw	r3,128(sp)
   23e64:	003e9306 	br	238b4 <___vfprintf_internal_r+0x854>
   23e68:	00801944 	movi	r2,101
   23e6c:	14407e0e 	bge	r2,r17,24068 <___vfprintf_internal_r+0x1008>
   23e70:	d9003617 	ldw	r4,216(sp)
   23e74:	d9403817 	ldw	r5,224(sp)
   23e78:	000d883a 	mov	r6,zero
   23e7c:	000f883a 	mov	r7,zero
   23e80:	d8c03c15 	stw	r3,240(sp)
   23e84:	da003d15 	stw	r8,244(sp)
   23e88:	002f6e00 	call	2f6e0 <__eqdf2>
   23e8c:	d8c03c17 	ldw	r3,240(sp)
   23e90:	da003d17 	ldw	r8,244(sp)
   23e94:	1000f71e 	bne	r2,zero,24274 <___vfprintf_internal_r+0x1214>
   23e98:	d8801f17 	ldw	r2,124(sp)
   23e9c:	010000f4 	movhi	r4,3
   23ea0:	210d0404 	addi	r4,r4,13328
   23ea4:	18c00044 	addi	r3,r3,1
   23ea8:	10800044 	addi	r2,r2,1
   23eac:	41000015 	stw	r4,0(r8)
   23eb0:	01000044 	movi	r4,1
   23eb4:	41000115 	stw	r4,4(r8)
   23eb8:	d8c02015 	stw	r3,128(sp)
   23ebc:	d8801f15 	stw	r2,124(sp)
   23ec0:	010001c4 	movi	r4,7
   23ec4:	2082b816 	blt	r4,r2,249a8 <___vfprintf_internal_r+0x1948>
   23ec8:	42000204 	addi	r8,r8,8
   23ecc:	d8802617 	ldw	r2,152(sp)
   23ed0:	d9403317 	ldw	r5,204(sp)
   23ed4:	11400216 	blt	r2,r5,23ee0 <___vfprintf_internal_r+0xe80>
   23ed8:	9080004c 	andi	r2,r18,1
   23edc:	103ed526 	beq	r2,zero,23a34 <___vfprintf_internal_r+0x9d4>
   23ee0:	d8803717 	ldw	r2,220(sp)
   23ee4:	d9003417 	ldw	r4,208(sp)
   23ee8:	d9403717 	ldw	r5,220(sp)
   23eec:	1887883a 	add	r3,r3,r2
   23ef0:	d8801f17 	ldw	r2,124(sp)
   23ef4:	41000015 	stw	r4,0(r8)
   23ef8:	41400115 	stw	r5,4(r8)
   23efc:	10800044 	addi	r2,r2,1
   23f00:	d8c02015 	stw	r3,128(sp)
   23f04:	d8801f15 	stw	r2,124(sp)
   23f08:	010001c4 	movi	r4,7
   23f0c:	20832916 	blt	r4,r2,24bb4 <___vfprintf_internal_r+0x1b54>
   23f10:	42000204 	addi	r8,r8,8
   23f14:	d8803317 	ldw	r2,204(sp)
   23f18:	143fffc4 	addi	r16,r2,-1
   23f1c:	043ec50e 	bge	zero,r16,23a34 <___vfprintf_internal_r+0x9d4>
   23f20:	04400404 	movi	r17,16
   23f24:	d8801f17 	ldw	r2,124(sp)
   23f28:	8c00880e 	bge	r17,r16,2414c <___vfprintf_internal_r+0x10ec>
   23f2c:	014000f4 	movhi	r5,3
   23f30:	294d0c84 	addi	r5,r5,13362
   23f34:	d9402b15 	stw	r5,172(sp)
   23f38:	058001c4 	movi	r22,7
   23f3c:	dcc02c17 	ldw	r19,176(sp)
   23f40:	00000306 	br	23f50 <___vfprintf_internal_r+0xef0>
   23f44:	42000204 	addi	r8,r8,8
   23f48:	843ffc04 	addi	r16,r16,-16
   23f4c:	8c00820e 	bge	r17,r16,24158 <___vfprintf_internal_r+0x10f8>
   23f50:	18c00404 	addi	r3,r3,16
   23f54:	10800044 	addi	r2,r2,1
   23f58:	45000015 	stw	r20,0(r8)
   23f5c:	44400115 	stw	r17,4(r8)
   23f60:	d8c02015 	stw	r3,128(sp)
   23f64:	d8801f15 	stw	r2,124(sp)
   23f68:	b0bff60e 	bge	r22,r2,23f44 <___vfprintf_internal_r+0xee4>
   23f6c:	d9801e04 	addi	r6,sp,120
   23f70:	b80b883a 	mov	r5,r23
   23f74:	9809883a 	mov	r4,r19
   23f78:	002ba680 	call	2ba68 <__sprint_r>
   23f7c:	103d3a1e 	bne	r2,zero,23468 <___vfprintf_internal_r+0x408>
   23f80:	d8c02017 	ldw	r3,128(sp)
   23f84:	d8801f17 	ldw	r2,124(sp)
   23f88:	da000404 	addi	r8,sp,16
   23f8c:	003fee06 	br	23f48 <___vfprintf_internal_r+0xee8>
   23f90:	d9403117 	ldw	r5,196(sp)
   23f94:	d8802a17 	ldw	r2,168(sp)
   23f98:	28adc83a 	sub	r22,r5,r2
   23f9c:	05be630e 	bge	zero,r22,2392c <___vfprintf_internal_r+0x8cc>
   23fa0:	07000404 	movi	fp,16
   23fa4:	d8801f17 	ldw	r2,124(sp)
   23fa8:	e5838f0e 	bge	fp,r22,24de8 <___vfprintf_internal_r+0x1d88>
   23fac:	014000f4 	movhi	r5,3
   23fb0:	294d0c84 	addi	r5,r5,13362
   23fb4:	dc403015 	stw	r17,192(sp)
   23fb8:	d9402b15 	stw	r5,172(sp)
   23fbc:	b023883a 	mov	r17,r22
   23fc0:	04c001c4 	movi	r19,7
   23fc4:	a82d883a 	mov	r22,r21
   23fc8:	902b883a 	mov	r21,r18
   23fcc:	8025883a 	mov	r18,r16
   23fd0:	dc002c17 	ldw	r16,176(sp)
   23fd4:	00000306 	br	23fe4 <___vfprintf_internal_r+0xf84>
   23fd8:	8c7ffc04 	addi	r17,r17,-16
   23fdc:	42000204 	addi	r8,r8,8
   23fe0:	e440110e 	bge	fp,r17,24028 <___vfprintf_internal_r+0xfc8>
   23fe4:	18c00404 	addi	r3,r3,16
   23fe8:	10800044 	addi	r2,r2,1
   23fec:	45000015 	stw	r20,0(r8)
   23ff0:	47000115 	stw	fp,4(r8)
   23ff4:	d8c02015 	stw	r3,128(sp)
   23ff8:	d8801f15 	stw	r2,124(sp)
   23ffc:	98bff60e 	bge	r19,r2,23fd8 <___vfprintf_internal_r+0xf78>
   24000:	d9801e04 	addi	r6,sp,120
   24004:	b80b883a 	mov	r5,r23
   24008:	8009883a 	mov	r4,r16
   2400c:	002ba680 	call	2ba68 <__sprint_r>
   24010:	103d151e 	bne	r2,zero,23468 <___vfprintf_internal_r+0x408>
   24014:	8c7ffc04 	addi	r17,r17,-16
   24018:	d8c02017 	ldw	r3,128(sp)
   2401c:	d8801f17 	ldw	r2,124(sp)
   24020:	da000404 	addi	r8,sp,16
   24024:	e47fef16 	blt	fp,r17,23fe4 <___vfprintf_internal_r+0xf84>
   24028:	9021883a 	mov	r16,r18
   2402c:	a825883a 	mov	r18,r21
   24030:	b02b883a 	mov	r21,r22
   24034:	882d883a 	mov	r22,r17
   24038:	dc403017 	ldw	r17,192(sp)
   2403c:	d9002b17 	ldw	r4,172(sp)
   24040:	1d87883a 	add	r3,r3,r22
   24044:	10800044 	addi	r2,r2,1
   24048:	41000015 	stw	r4,0(r8)
   2404c:	45800115 	stw	r22,4(r8)
   24050:	d8c02015 	stw	r3,128(sp)
   24054:	d8801f15 	stw	r2,124(sp)
   24058:	010001c4 	movi	r4,7
   2405c:	20818e16 	blt	r4,r2,24698 <___vfprintf_internal_r+0x1638>
   24060:	42000204 	addi	r8,r8,8
   24064:	003e3106 	br	2392c <___vfprintf_internal_r+0x8cc>
   24068:	d9403317 	ldw	r5,204(sp)
   2406c:	00800044 	movi	r2,1
   24070:	18c00044 	addi	r3,r3,1
   24074:	1141530e 	bge	r2,r5,245c4 <___vfprintf_internal_r+0x1564>
   24078:	dc401f17 	ldw	r17,124(sp)
   2407c:	00800044 	movi	r2,1
   24080:	40800115 	stw	r2,4(r8)
   24084:	8c400044 	addi	r17,r17,1
   24088:	44000015 	stw	r16,0(r8)
   2408c:	d8c02015 	stw	r3,128(sp)
   24090:	dc401f15 	stw	r17,124(sp)
   24094:	008001c4 	movi	r2,7
   24098:	14416b16 	blt	r2,r17,24648 <___vfprintf_internal_r+0x15e8>
   2409c:	42000204 	addi	r8,r8,8
   240a0:	d8803717 	ldw	r2,220(sp)
   240a4:	d9003417 	ldw	r4,208(sp)
   240a8:	8c400044 	addi	r17,r17,1
   240ac:	10c7883a 	add	r3,r2,r3
   240b0:	40800115 	stw	r2,4(r8)
   240b4:	41000015 	stw	r4,0(r8)
   240b8:	d8c02015 	stw	r3,128(sp)
   240bc:	dc401f15 	stw	r17,124(sp)
   240c0:	008001c4 	movi	r2,7
   240c4:	14416916 	blt	r2,r17,2466c <___vfprintf_internal_r+0x160c>
   240c8:	45800204 	addi	r22,r8,8
   240cc:	d9003617 	ldw	r4,216(sp)
   240d0:	d9403817 	ldw	r5,224(sp)
   240d4:	000d883a 	mov	r6,zero
   240d8:	000f883a 	mov	r7,zero
   240dc:	d8c03c15 	stw	r3,240(sp)
   240e0:	002f6e00 	call	2f6e0 <__eqdf2>
   240e4:	d8c03c17 	ldw	r3,240(sp)
   240e8:	1000bc26 	beq	r2,zero,243dc <___vfprintf_internal_r+0x137c>
   240ec:	d9403317 	ldw	r5,204(sp)
   240f0:	84000044 	addi	r16,r16,1
   240f4:	8c400044 	addi	r17,r17,1
   240f8:	28bfffc4 	addi	r2,r5,-1
   240fc:	1887883a 	add	r3,r3,r2
   24100:	b0800115 	stw	r2,4(r22)
   24104:	b4000015 	stw	r16,0(r22)
   24108:	d8c02015 	stw	r3,128(sp)
   2410c:	dc401f15 	stw	r17,124(sp)
   24110:	008001c4 	movi	r2,7
   24114:	14414316 	blt	r2,r17,24624 <___vfprintf_internal_r+0x15c4>
   24118:	b5800204 	addi	r22,r22,8
   2411c:	d9003a17 	ldw	r4,232(sp)
   24120:	df0022c4 	addi	fp,sp,139
   24124:	8c400044 	addi	r17,r17,1
   24128:	20c7883a 	add	r3,r4,r3
   2412c:	b7000015 	stw	fp,0(r22)
   24130:	b1000115 	stw	r4,4(r22)
   24134:	d8c02015 	stw	r3,128(sp)
   24138:	dc401f15 	stw	r17,124(sp)
   2413c:	008001c4 	movi	r2,7
   24140:	14400e16 	blt	r2,r17,2417c <___vfprintf_internal_r+0x111c>
   24144:	b2000204 	addi	r8,r22,8
   24148:	003e3a06 	br	23a34 <___vfprintf_internal_r+0x9d4>
   2414c:	010000f4 	movhi	r4,3
   24150:	210d0c84 	addi	r4,r4,13362
   24154:	d9002b15 	stw	r4,172(sp)
   24158:	d9002b17 	ldw	r4,172(sp)
   2415c:	1c07883a 	add	r3,r3,r16
   24160:	44000115 	stw	r16,4(r8)
   24164:	41000015 	stw	r4,0(r8)
   24168:	10800044 	addi	r2,r2,1
   2416c:	d8c02015 	stw	r3,128(sp)
   24170:	d8801f15 	stw	r2,124(sp)
   24174:	010001c4 	movi	r4,7
   24178:	20be2d0e 	bge	r4,r2,23a30 <___vfprintf_internal_r+0x9d0>
   2417c:	d9002c17 	ldw	r4,176(sp)
   24180:	d9801e04 	addi	r6,sp,120
   24184:	b80b883a 	mov	r5,r23
   24188:	002ba680 	call	2ba68 <__sprint_r>
   2418c:	103cb61e 	bne	r2,zero,23468 <___vfprintf_internal_r+0x408>
   24190:	d8c02017 	ldw	r3,128(sp)
   24194:	da000404 	addi	r8,sp,16
   24198:	003e2606 	br	23a34 <___vfprintf_internal_r+0x9d4>
   2419c:	d9002c17 	ldw	r4,176(sp)
   241a0:	d9801e04 	addi	r6,sp,120
   241a4:	b80b883a 	mov	r5,r23
   241a8:	002ba680 	call	2ba68 <__sprint_r>
   241ac:	103e5d26 	beq	r2,zero,23b24 <___vfprintf_internal_r+0xac4>
   241b0:	003cad06 	br	23468 <___vfprintf_internal_r+0x408>
   241b4:	d9002c17 	ldw	r4,176(sp)
   241b8:	d9801e04 	addi	r6,sp,120
   241bc:	b80b883a 	mov	r5,r23
   241c0:	002ba680 	call	2ba68 <__sprint_r>
   241c4:	103ca81e 	bne	r2,zero,23468 <___vfprintf_internal_r+0x408>
   241c8:	d8c02017 	ldw	r3,128(sp)
   241cc:	da000404 	addi	r8,sp,16
   241d0:	003e0b06 	br	23a00 <___vfprintf_internal_r+0x9a0>
   241d4:	d9002c17 	ldw	r4,176(sp)
   241d8:	d9801e04 	addi	r6,sp,120
   241dc:	b80b883a 	mov	r5,r23
   241e0:	002ba680 	call	2ba68 <__sprint_r>
   241e4:	103ca01e 	bne	r2,zero,23468 <___vfprintf_internal_r+0x408>
   241e8:	d8c02017 	ldw	r3,128(sp)
   241ec:	da000404 	addi	r8,sp,16
   241f0:	003dbd06 	br	238e8 <___vfprintf_internal_r+0x888>
   241f4:	d9002c17 	ldw	r4,176(sp)
   241f8:	d9801e04 	addi	r6,sp,120
   241fc:	b80b883a 	mov	r5,r23
   24200:	002ba680 	call	2ba68 <__sprint_r>
   24204:	103c981e 	bne	r2,zero,23468 <___vfprintf_internal_r+0x408>
   24208:	d8c02017 	ldw	r3,128(sp)
   2420c:	da000404 	addi	r8,sp,16
   24210:	003dc306 	br	23920 <___vfprintf_internal_r+0x8c0>
   24214:	d8802917 	ldw	r2,164(sp)
   24218:	d8002785 	stb	zero,158(sp)
   2421c:	103f0616 	blt	r2,zero,23e38 <___vfprintf_internal_r+0xdd8>
   24220:	00ffdfc4 	movi	r3,-129
   24224:	9d84b03a 	or	r2,r19,r22
   24228:	90e4703a 	and	r18,r18,r3
   2422c:	103c6b26 	beq	r2,zero,233dc <___vfprintf_internal_r+0x37c>
   24230:	0039883a 	mov	fp,zero
   24234:	003e7406 	br	23c08 <___vfprintf_internal_r+0xba8>
   24238:	9080040c 	andi	r2,r18,16
   2423c:	1001b326 	beq	r2,zero,2490c <___vfprintf_internal_r+0x18ac>
   24240:	d9002d17 	ldw	r4,180(sp)
   24244:	d9402917 	ldw	r5,164(sp)
   24248:	d8002785 	stb	zero,158(sp)
   2424c:	20800104 	addi	r2,r4,4
   24250:	24c00017 	ldw	r19,0(r4)
   24254:	002d883a 	mov	r22,zero
   24258:	2801b516 	blt	r5,zero,24930 <___vfprintf_internal_r+0x18d0>
   2425c:	00ffdfc4 	movi	r3,-129
   24260:	d8802d15 	stw	r2,180(sp)
   24264:	90e4703a 	and	r18,r18,r3
   24268:	983d2726 	beq	r19,zero,23708 <___vfprintf_internal_r+0x6a8>
   2426c:	0039883a 	mov	fp,zero
   24270:	003d2a06 	br	2371c <___vfprintf_internal_r+0x6bc>
   24274:	dc402617 	ldw	r17,152(sp)
   24278:	0441d30e 	bge	zero,r17,249c8 <___vfprintf_internal_r+0x1968>
   2427c:	dc403217 	ldw	r17,200(sp)
   24280:	d8803317 	ldw	r2,204(sp)
   24284:	1440010e 	bge	r2,r17,2428c <___vfprintf_internal_r+0x122c>
   24288:	1023883a 	mov	r17,r2
   2428c:	04400a0e 	bge	zero,r17,242b8 <___vfprintf_internal_r+0x1258>
   24290:	d8801f17 	ldw	r2,124(sp)
   24294:	1c47883a 	add	r3,r3,r17
   24298:	44000015 	stw	r16,0(r8)
   2429c:	10800044 	addi	r2,r2,1
   242a0:	44400115 	stw	r17,4(r8)
   242a4:	d8c02015 	stw	r3,128(sp)
   242a8:	d8801f15 	stw	r2,124(sp)
   242ac:	010001c4 	movi	r4,7
   242b0:	20826516 	blt	r4,r2,24c48 <___vfprintf_internal_r+0x1be8>
   242b4:	42000204 	addi	r8,r8,8
   242b8:	88026116 	blt	r17,zero,24c40 <___vfprintf_internal_r+0x1be0>
   242bc:	d9003217 	ldw	r4,200(sp)
   242c0:	2463c83a 	sub	r17,r4,r17
   242c4:	04407b0e 	bge	zero,r17,244b4 <___vfprintf_internal_r+0x1454>
   242c8:	05800404 	movi	r22,16
   242cc:	d8801f17 	ldw	r2,124(sp)
   242d0:	b4419d0e 	bge	r22,r17,24948 <___vfprintf_internal_r+0x18e8>
   242d4:	010000f4 	movhi	r4,3
   242d8:	210d0c84 	addi	r4,r4,13362
   242dc:	d9002b15 	stw	r4,172(sp)
   242e0:	070001c4 	movi	fp,7
   242e4:	dcc02c17 	ldw	r19,176(sp)
   242e8:	00000306 	br	242f8 <___vfprintf_internal_r+0x1298>
   242ec:	42000204 	addi	r8,r8,8
   242f0:	8c7ffc04 	addi	r17,r17,-16
   242f4:	b441970e 	bge	r22,r17,24954 <___vfprintf_internal_r+0x18f4>
   242f8:	18c00404 	addi	r3,r3,16
   242fc:	10800044 	addi	r2,r2,1
   24300:	45000015 	stw	r20,0(r8)
   24304:	45800115 	stw	r22,4(r8)
   24308:	d8c02015 	stw	r3,128(sp)
   2430c:	d8801f15 	stw	r2,124(sp)
   24310:	e0bff60e 	bge	fp,r2,242ec <___vfprintf_internal_r+0x128c>
   24314:	d9801e04 	addi	r6,sp,120
   24318:	b80b883a 	mov	r5,r23
   2431c:	9809883a 	mov	r4,r19
   24320:	002ba680 	call	2ba68 <__sprint_r>
   24324:	103c501e 	bne	r2,zero,23468 <___vfprintf_internal_r+0x408>
   24328:	d8c02017 	ldw	r3,128(sp)
   2432c:	d8801f17 	ldw	r2,124(sp)
   24330:	da000404 	addi	r8,sp,16
   24334:	003fee06 	br	242f0 <___vfprintf_internal_r+0x1290>
   24338:	d9002c17 	ldw	r4,176(sp)
   2433c:	d9801e04 	addi	r6,sp,120
   24340:	b80b883a 	mov	r5,r23
   24344:	002ba680 	call	2ba68 <__sprint_r>
   24348:	103c471e 	bne	r2,zero,23468 <___vfprintf_internal_r+0x408>
   2434c:	d8c02017 	ldw	r3,128(sp)
   24350:	df002787 	ldb	fp,158(sp)
   24354:	da000404 	addi	r8,sp,16
   24358:	003d5606 	br	238b4 <___vfprintf_internal_r+0x854>
   2435c:	9080040c 	andi	r2,r18,16
   24360:	10016126 	beq	r2,zero,248e8 <___vfprintf_internal_r+0x1888>
   24364:	d8802d17 	ldw	r2,180(sp)
   24368:	14c00017 	ldw	r19,0(r2)
   2436c:	10800104 	addi	r2,r2,4
   24370:	d8802d15 	stw	r2,180(sp)
   24374:	982dd7fa 	srai	r22,r19,31
   24378:	b005883a 	mov	r2,r22
   2437c:	003c8206 	br	23588 <___vfprintf_internal_r+0x528>
   24380:	9080040c 	andi	r2,r18,16
   24384:	10003526 	beq	r2,zero,2445c <___vfprintf_internal_r+0x13fc>
   24388:	d9402d17 	ldw	r5,180(sp)
   2438c:	d8c02917 	ldw	r3,164(sp)
   24390:	d8002785 	stb	zero,158(sp)
   24394:	28800104 	addi	r2,r5,4
   24398:	2cc00017 	ldw	r19,0(r5)
   2439c:	002d883a 	mov	r22,zero
   243a0:	18003716 	blt	r3,zero,24480 <___vfprintf_internal_r+0x1420>
   243a4:	00ffdfc4 	movi	r3,-129
   243a8:	d8802d15 	stw	r2,180(sp)
   243ac:	90e4703a 	and	r18,r18,r3
   243b0:	0039883a 	mov	fp,zero
   243b4:	983df326 	beq	r19,zero,23b84 <___vfprintf_internal_r+0xb24>
   243b8:	00800244 	movi	r2,9
   243bc:	14fc7b36 	bltu	r2,r19,235ac <___vfprintf_internal_r+0x54c>
   243c0:	d8c02817 	ldw	r3,160(sp)
   243c4:	dc001dc4 	addi	r16,sp,119
   243c8:	9cc00c04 	addi	r19,r19,48
   243cc:	1c07c83a 	sub	r3,r3,r16
   243d0:	dcc01dc5 	stb	r19,119(sp)
   243d4:	d8c02e15 	stw	r3,184(sp)
   243d8:	003ce806 	br	2377c <___vfprintf_internal_r+0x71c>
   243dc:	d8803317 	ldw	r2,204(sp)
   243e0:	143fffc4 	addi	r16,r2,-1
   243e4:	043f4d0e 	bge	zero,r16,2411c <___vfprintf_internal_r+0x10bc>
   243e8:	07000404 	movi	fp,16
   243ec:	e400810e 	bge	fp,r16,245f4 <___vfprintf_internal_r+0x1594>
   243f0:	014000f4 	movhi	r5,3
   243f4:	294d0c84 	addi	r5,r5,13362
   243f8:	d9402b15 	stw	r5,172(sp)
   243fc:	01c001c4 	movi	r7,7
   24400:	dcc02c17 	ldw	r19,176(sp)
   24404:	00000306 	br	24414 <___vfprintf_internal_r+0x13b4>
   24408:	b5800204 	addi	r22,r22,8
   2440c:	843ffc04 	addi	r16,r16,-16
   24410:	e4007b0e 	bge	fp,r16,24600 <___vfprintf_internal_r+0x15a0>
   24414:	18c00404 	addi	r3,r3,16
   24418:	8c400044 	addi	r17,r17,1
   2441c:	b5000015 	stw	r20,0(r22)
   24420:	b7000115 	stw	fp,4(r22)
   24424:	d8c02015 	stw	r3,128(sp)
   24428:	dc401f15 	stw	r17,124(sp)
   2442c:	3c7ff60e 	bge	r7,r17,24408 <___vfprintf_internal_r+0x13a8>
   24430:	d9801e04 	addi	r6,sp,120
   24434:	b80b883a 	mov	r5,r23
   24438:	9809883a 	mov	r4,r19
   2443c:	d9c03c15 	stw	r7,240(sp)
   24440:	002ba680 	call	2ba68 <__sprint_r>
   24444:	d9c03c17 	ldw	r7,240(sp)
   24448:	103c071e 	bne	r2,zero,23468 <___vfprintf_internal_r+0x408>
   2444c:	d8c02017 	ldw	r3,128(sp)
   24450:	dc401f17 	ldw	r17,124(sp)
   24454:	dd800404 	addi	r22,sp,16
   24458:	003fec06 	br	2440c <___vfprintf_internal_r+0x13ac>
   2445c:	9080100c 	andi	r2,r18,64
   24460:	d8002785 	stb	zero,158(sp)
   24464:	10010e26 	beq	r2,zero,248a0 <___vfprintf_internal_r+0x1840>
   24468:	d9002d17 	ldw	r4,180(sp)
   2446c:	d9402917 	ldw	r5,164(sp)
   24470:	002d883a 	mov	r22,zero
   24474:	20800104 	addi	r2,r4,4
   24478:	24c0000b 	ldhu	r19,0(r4)
   2447c:	283fc90e 	bge	r5,zero,243a4 <___vfprintf_internal_r+0x1344>
   24480:	d8802d15 	stw	r2,180(sp)
   24484:	0039883a 	mov	fp,zero
   24488:	9d84b03a 	or	r2,r19,r22
   2448c:	103c461e 	bne	r2,zero,235a8 <___vfprintf_internal_r+0x548>
   24490:	00800044 	movi	r2,1
   24494:	003e6c06 	br	23e48 <___vfprintf_internal_r+0xde8>
   24498:	d9002c17 	ldw	r4,176(sp)
   2449c:	d9801e04 	addi	r6,sp,120
   244a0:	b80b883a 	mov	r5,r23
   244a4:	002ba680 	call	2ba68 <__sprint_r>
   244a8:	103bef1e 	bne	r2,zero,23468 <___vfprintf_internal_r+0x408>
   244ac:	d8c02017 	ldw	r3,128(sp)
   244b0:	da000404 	addi	r8,sp,16
   244b4:	d9003217 	ldw	r4,200(sp)
   244b8:	d8802617 	ldw	r2,152(sp)
   244bc:	d9403317 	ldw	r5,204(sp)
   244c0:	8123883a 	add	r17,r16,r4
   244c4:	11400216 	blt	r2,r5,244d0 <___vfprintf_internal_r+0x1470>
   244c8:	9100004c 	andi	r4,r18,1
   244cc:	20000d26 	beq	r4,zero,24504 <___vfprintf_internal_r+0x14a4>
   244d0:	d9003717 	ldw	r4,220(sp)
   244d4:	d9403417 	ldw	r5,208(sp)
   244d8:	1907883a 	add	r3,r3,r4
   244dc:	d9001f17 	ldw	r4,124(sp)
   244e0:	41400015 	stw	r5,0(r8)
   244e4:	d9403717 	ldw	r5,220(sp)
   244e8:	21000044 	addi	r4,r4,1
   244ec:	d8c02015 	stw	r3,128(sp)
   244f0:	41400115 	stw	r5,4(r8)
   244f4:	d9001f15 	stw	r4,124(sp)
   244f8:	014001c4 	movi	r5,7
   244fc:	2901e816 	blt	r5,r4,24ca0 <___vfprintf_internal_r+0x1c40>
   24500:	42000204 	addi	r8,r8,8
   24504:	d9003317 	ldw	r4,204(sp)
   24508:	8121883a 	add	r16,r16,r4
   2450c:	2085c83a 	sub	r2,r4,r2
   24510:	8461c83a 	sub	r16,r16,r17
   24514:	1400010e 	bge	r2,r16,2451c <___vfprintf_internal_r+0x14bc>
   24518:	1021883a 	mov	r16,r2
   2451c:	04000a0e 	bge	zero,r16,24548 <___vfprintf_internal_r+0x14e8>
   24520:	d9001f17 	ldw	r4,124(sp)
   24524:	1c07883a 	add	r3,r3,r16
   24528:	44400015 	stw	r17,0(r8)
   2452c:	21000044 	addi	r4,r4,1
   24530:	44000115 	stw	r16,4(r8)
   24534:	d8c02015 	stw	r3,128(sp)
   24538:	d9001f15 	stw	r4,124(sp)
   2453c:	014001c4 	movi	r5,7
   24540:	2901fb16 	blt	r5,r4,24d30 <___vfprintf_internal_r+0x1cd0>
   24544:	42000204 	addi	r8,r8,8
   24548:	8001f716 	blt	r16,zero,24d28 <___vfprintf_internal_r+0x1cc8>
   2454c:	1421c83a 	sub	r16,r2,r16
   24550:	043d380e 	bge	zero,r16,23a34 <___vfprintf_internal_r+0x9d4>
   24554:	04400404 	movi	r17,16
   24558:	d8801f17 	ldw	r2,124(sp)
   2455c:	8c3efb0e 	bge	r17,r16,2414c <___vfprintf_internal_r+0x10ec>
   24560:	014000f4 	movhi	r5,3
   24564:	294d0c84 	addi	r5,r5,13362
   24568:	d9402b15 	stw	r5,172(sp)
   2456c:	058001c4 	movi	r22,7
   24570:	dcc02c17 	ldw	r19,176(sp)
   24574:	00000306 	br	24584 <___vfprintf_internal_r+0x1524>
   24578:	42000204 	addi	r8,r8,8
   2457c:	843ffc04 	addi	r16,r16,-16
   24580:	8c3ef50e 	bge	r17,r16,24158 <___vfprintf_internal_r+0x10f8>
   24584:	18c00404 	addi	r3,r3,16
   24588:	10800044 	addi	r2,r2,1
   2458c:	45000015 	stw	r20,0(r8)
   24590:	44400115 	stw	r17,4(r8)
   24594:	d8c02015 	stw	r3,128(sp)
   24598:	d8801f15 	stw	r2,124(sp)
   2459c:	b0bff60e 	bge	r22,r2,24578 <___vfprintf_internal_r+0x1518>
   245a0:	d9801e04 	addi	r6,sp,120
   245a4:	b80b883a 	mov	r5,r23
   245a8:	9809883a 	mov	r4,r19
   245ac:	002ba680 	call	2ba68 <__sprint_r>
   245b0:	103bad1e 	bne	r2,zero,23468 <___vfprintf_internal_r+0x408>
   245b4:	d8c02017 	ldw	r3,128(sp)
   245b8:	d8801f17 	ldw	r2,124(sp)
   245bc:	da000404 	addi	r8,sp,16
   245c0:	003fee06 	br	2457c <___vfprintf_internal_r+0x151c>
   245c4:	9088703a 	and	r4,r18,r2
   245c8:	203eab1e 	bne	r4,zero,24078 <___vfprintf_internal_r+0x1018>
   245cc:	dc401f17 	ldw	r17,124(sp)
   245d0:	40800115 	stw	r2,4(r8)
   245d4:	44000015 	stw	r16,0(r8)
   245d8:	8c400044 	addi	r17,r17,1
   245dc:	d8c02015 	stw	r3,128(sp)
   245e0:	dc401f15 	stw	r17,124(sp)
   245e4:	008001c4 	movi	r2,7
   245e8:	14400e16 	blt	r2,r17,24624 <___vfprintf_internal_r+0x15c4>
   245ec:	45800204 	addi	r22,r8,8
   245f0:	003eca06 	br	2411c <___vfprintf_internal_r+0x10bc>
   245f4:	010000f4 	movhi	r4,3
   245f8:	210d0c84 	addi	r4,r4,13362
   245fc:	d9002b15 	stw	r4,172(sp)
   24600:	d8802b17 	ldw	r2,172(sp)
   24604:	1c07883a 	add	r3,r3,r16
   24608:	8c400044 	addi	r17,r17,1
   2460c:	b0800015 	stw	r2,0(r22)
   24610:	b4000115 	stw	r16,4(r22)
   24614:	d8c02015 	stw	r3,128(sp)
   24618:	dc401f15 	stw	r17,124(sp)
   2461c:	008001c4 	movi	r2,7
   24620:	147ebd0e 	bge	r2,r17,24118 <___vfprintf_internal_r+0x10b8>
   24624:	d9002c17 	ldw	r4,176(sp)
   24628:	d9801e04 	addi	r6,sp,120
   2462c:	b80b883a 	mov	r5,r23
   24630:	002ba680 	call	2ba68 <__sprint_r>
   24634:	103b8c1e 	bne	r2,zero,23468 <___vfprintf_internal_r+0x408>
   24638:	d8c02017 	ldw	r3,128(sp)
   2463c:	dc401f17 	ldw	r17,124(sp)
   24640:	dd800404 	addi	r22,sp,16
   24644:	003eb506 	br	2411c <___vfprintf_internal_r+0x10bc>
   24648:	d9002c17 	ldw	r4,176(sp)
   2464c:	d9801e04 	addi	r6,sp,120
   24650:	b80b883a 	mov	r5,r23
   24654:	002ba680 	call	2ba68 <__sprint_r>
   24658:	103b831e 	bne	r2,zero,23468 <___vfprintf_internal_r+0x408>
   2465c:	d8c02017 	ldw	r3,128(sp)
   24660:	dc401f17 	ldw	r17,124(sp)
   24664:	da000404 	addi	r8,sp,16
   24668:	003e8d06 	br	240a0 <___vfprintf_internal_r+0x1040>
   2466c:	d9002c17 	ldw	r4,176(sp)
   24670:	d9801e04 	addi	r6,sp,120
   24674:	b80b883a 	mov	r5,r23
   24678:	002ba680 	call	2ba68 <__sprint_r>
   2467c:	103b7a1e 	bne	r2,zero,23468 <___vfprintf_internal_r+0x408>
   24680:	d8c02017 	ldw	r3,128(sp)
   24684:	dc401f17 	ldw	r17,124(sp)
   24688:	dd800404 	addi	r22,sp,16
   2468c:	003e8f06 	br	240cc <___vfprintf_internal_r+0x106c>
   24690:	0027883a 	mov	r19,zero
   24694:	003f4a06 	br	243c0 <___vfprintf_internal_r+0x1360>
   24698:	d9002c17 	ldw	r4,176(sp)
   2469c:	d9801e04 	addi	r6,sp,120
   246a0:	b80b883a 	mov	r5,r23
   246a4:	002ba680 	call	2ba68 <__sprint_r>
   246a8:	103b6f1e 	bne	r2,zero,23468 <___vfprintf_internal_r+0x408>
   246ac:	d8c02017 	ldw	r3,128(sp)
   246b0:	da000404 	addi	r8,sp,16
   246b4:	003c9d06 	br	2392c <___vfprintf_internal_r+0x8cc>
   246b8:	04e7c83a 	sub	r19,zero,r19
   246bc:	9804c03a 	cmpne	r2,r19,zero
   246c0:	05adc83a 	sub	r22,zero,r22
   246c4:	b0adc83a 	sub	r22,r22,r2
   246c8:	d8802917 	ldw	r2,164(sp)
   246cc:	07000b44 	movi	fp,45
   246d0:	df002785 	stb	fp,158(sp)
   246d4:	10017b16 	blt	r2,zero,24cc4 <___vfprintf_internal_r+0x1c64>
   246d8:	00bfdfc4 	movi	r2,-129
   246dc:	90a4703a 	and	r18,r18,r2
   246e0:	003bb106 	br	235a8 <___vfprintf_internal_r+0x548>
   246e4:	d9003617 	ldw	r4,216(sp)
   246e8:	d9403817 	ldw	r5,224(sp)
   246ec:	da003d15 	stw	r8,244(sp)
   246f0:	002a2800 	call	2a280 <__fpclassifyd>
   246f4:	da003d17 	ldw	r8,244(sp)
   246f8:	1000f026 	beq	r2,zero,24abc <___vfprintf_internal_r+0x1a5c>
   246fc:	d9002917 	ldw	r4,164(sp)
   24700:	05bff7c4 	movi	r22,-33
   24704:	00bfffc4 	movi	r2,-1
   24708:	8dac703a 	and	r22,r17,r22
   2470c:	20820026 	beq	r4,r2,24f10 <___vfprintf_internal_r+0x1eb0>
   24710:	008011c4 	movi	r2,71
   24714:	b081f726 	beq	r22,r2,24ef4 <___vfprintf_internal_r+0x1e94>
   24718:	d9003817 	ldw	r4,224(sp)
   2471c:	90c04014 	ori	r3,r18,256
   24720:	d8c02b15 	stw	r3,172(sp)
   24724:	20021516 	blt	r4,zero,24f7c <___vfprintf_internal_r+0x1f1c>
   24728:	dcc03817 	ldw	r19,224(sp)
   2472c:	d8002a05 	stb	zero,168(sp)
   24730:	00801984 	movi	r2,102
   24734:	8881f926 	beq	r17,r2,24f1c <___vfprintf_internal_r+0x1ebc>
   24738:	00801184 	movi	r2,70
   2473c:	88821c26 	beq	r17,r2,24fb0 <___vfprintf_internal_r+0x1f50>
   24740:	00801144 	movi	r2,69
   24744:	b081ef26 	beq	r22,r2,24f04 <___vfprintf_internal_r+0x1ea4>
   24748:	d8c02917 	ldw	r3,164(sp)
   2474c:	d8802104 	addi	r2,sp,132
   24750:	d8800315 	stw	r2,12(sp)
   24754:	d9403617 	ldw	r5,216(sp)
   24758:	d8802504 	addi	r2,sp,148
   2475c:	d9002c17 	ldw	r4,176(sp)
   24760:	d8800215 	stw	r2,8(sp)
   24764:	d8802604 	addi	r2,sp,152
   24768:	d8c00015 	stw	r3,0(sp)
   2476c:	d8800115 	stw	r2,4(sp)
   24770:	01c00084 	movi	r7,2
   24774:	980d883a 	mov	r6,r19
   24778:	d8c03c15 	stw	r3,240(sp)
   2477c:	da003d15 	stw	r8,244(sp)
   24780:	00256840 	call	25684 <_dtoa_r>
   24784:	1021883a 	mov	r16,r2
   24788:	008019c4 	movi	r2,103
   2478c:	d8c03c17 	ldw	r3,240(sp)
   24790:	da003d17 	ldw	r8,244(sp)
   24794:	88817126 	beq	r17,r2,24d5c <___vfprintf_internal_r+0x1cfc>
   24798:	008011c4 	movi	r2,71
   2479c:	88829226 	beq	r17,r2,251e8 <___vfprintf_internal_r+0x2188>
   247a0:	80f9883a 	add	fp,r16,r3
   247a4:	d9003617 	ldw	r4,216(sp)
   247a8:	000d883a 	mov	r6,zero
   247ac:	000f883a 	mov	r7,zero
   247b0:	980b883a 	mov	r5,r19
   247b4:	da003d15 	stw	r8,244(sp)
   247b8:	002f6e00 	call	2f6e0 <__eqdf2>
   247bc:	da003d17 	ldw	r8,244(sp)
   247c0:	10018d26 	beq	r2,zero,24df8 <___vfprintf_internal_r+0x1d98>
   247c4:	d8802117 	ldw	r2,132(sp)
   247c8:	1700062e 	bgeu	r2,fp,247e4 <___vfprintf_internal_r+0x1784>
   247cc:	01000c04 	movi	r4,48
   247d0:	10c00044 	addi	r3,r2,1
   247d4:	d8c02115 	stw	r3,132(sp)
   247d8:	11000005 	stb	r4,0(r2)
   247dc:	d8802117 	ldw	r2,132(sp)
   247e0:	173ffb36 	bltu	r2,fp,247d0 <___vfprintf_internal_r+0x1770>
   247e4:	1405c83a 	sub	r2,r2,r16
   247e8:	d8803315 	stw	r2,204(sp)
   247ec:	008011c4 	movi	r2,71
   247f0:	b0817626 	beq	r22,r2,24dcc <___vfprintf_internal_r+0x1d6c>
   247f4:	00801944 	movi	r2,101
   247f8:	1442810e 	bge	r2,r17,25200 <___vfprintf_internal_r+0x21a0>
   247fc:	d8c02617 	ldw	r3,152(sp)
   24800:	00801984 	movi	r2,102
   24804:	d8c03215 	stw	r3,200(sp)
   24808:	8881fe26 	beq	r17,r2,25004 <___vfprintf_internal_r+0x1fa4>
   2480c:	d8c03217 	ldw	r3,200(sp)
   24810:	d9003317 	ldw	r4,204(sp)
   24814:	1901dd16 	blt	r3,r4,24f8c <___vfprintf_internal_r+0x1f2c>
   24818:	9480004c 	andi	r18,r18,1
   2481c:	90022b1e 	bne	r18,zero,250cc <___vfprintf_internal_r+0x206c>
   24820:	1805883a 	mov	r2,r3
   24824:	18028016 	blt	r3,zero,25228 <___vfprintf_internal_r+0x21c8>
   24828:	d8c03217 	ldw	r3,200(sp)
   2482c:	044019c4 	movi	r17,103
   24830:	d8c02e15 	stw	r3,184(sp)
   24834:	df002a07 	ldb	fp,168(sp)
   24838:	e001531e 	bne	fp,zero,24d88 <___vfprintf_internal_r+0x1d28>
   2483c:	df002783 	ldbu	fp,158(sp)
   24840:	d8802a15 	stw	r2,168(sp)
   24844:	dc802b17 	ldw	r18,172(sp)
   24848:	d8002915 	stw	zero,164(sp)
   2484c:	003bd106 	br	23794 <___vfprintf_internal_r+0x734>
   24850:	d8802d17 	ldw	r2,180(sp)
   24854:	d8c02d17 	ldw	r3,180(sp)
   24858:	d9002d17 	ldw	r4,180(sp)
   2485c:	10800017 	ldw	r2,0(r2)
   24860:	18c00117 	ldw	r3,4(r3)
   24864:	21000204 	addi	r4,r4,8
   24868:	d8803615 	stw	r2,216(sp)
   2486c:	d8c03815 	stw	r3,224(sp)
   24870:	d9002d15 	stw	r4,180(sp)
   24874:	003b7506 	br	2364c <___vfprintf_internal_r+0x5ec>
   24878:	ac400007 	ldb	r17,0(r21)
   2487c:	003a5906 	br	231e4 <___vfprintf_internal_r+0x184>
   24880:	9080100c 	andi	r2,r18,64
   24884:	1000a826 	beq	r2,zero,24b28 <___vfprintf_internal_r+0x1ac8>
   24888:	d9002d17 	ldw	r4,180(sp)
   2488c:	002d883a 	mov	r22,zero
   24890:	24c0000b 	ldhu	r19,0(r4)
   24894:	21000104 	addi	r4,r4,4
   24898:	d9002d15 	stw	r4,180(sp)
   2489c:	003ccb06 	br	23bcc <___vfprintf_internal_r+0xb6c>
   248a0:	d8c02d17 	ldw	r3,180(sp)
   248a4:	d9002917 	ldw	r4,164(sp)
   248a8:	002d883a 	mov	r22,zero
   248ac:	18800104 	addi	r2,r3,4
   248b0:	1cc00017 	ldw	r19,0(r3)
   248b4:	203ebb0e 	bge	r4,zero,243a4 <___vfprintf_internal_r+0x1344>
   248b8:	003ef106 	br	24480 <___vfprintf_internal_r+0x1420>
   248bc:	9080040c 	andi	r2,r18,16
   248c0:	1000921e 	bne	r2,zero,24b0c <___vfprintf_internal_r+0x1aac>
   248c4:	9480100c 	andi	r18,r18,64
   248c8:	90013926 	beq	r18,zero,24db0 <___vfprintf_internal_r+0x1d50>
   248cc:	d9002d17 	ldw	r4,180(sp)
   248d0:	d9402f17 	ldw	r5,188(sp)
   248d4:	20800017 	ldw	r2,0(r4)
   248d8:	21000104 	addi	r4,r4,4
   248dc:	d9002d15 	stw	r4,180(sp)
   248e0:	1140000d 	sth	r5,0(r2)
   248e4:	003a1606 	br	23140 <___vfprintf_internal_r+0xe0>
   248e8:	9080100c 	andi	r2,r18,64
   248ec:	10008026 	beq	r2,zero,24af0 <___vfprintf_internal_r+0x1a90>
   248f0:	d8c02d17 	ldw	r3,180(sp)
   248f4:	1cc0000f 	ldh	r19,0(r3)
   248f8:	18c00104 	addi	r3,r3,4
   248fc:	d8c02d15 	stw	r3,180(sp)
   24900:	982dd7fa 	srai	r22,r19,31
   24904:	b005883a 	mov	r2,r22
   24908:	003b1f06 	br	23588 <___vfprintf_internal_r+0x528>
   2490c:	9080100c 	andi	r2,r18,64
   24910:	d8002785 	stb	zero,158(sp)
   24914:	10008a1e 	bne	r2,zero,24b40 <___vfprintf_internal_r+0x1ae0>
   24918:	d9402d17 	ldw	r5,180(sp)
   2491c:	d8c02917 	ldw	r3,164(sp)
   24920:	002d883a 	mov	r22,zero
   24924:	28800104 	addi	r2,r5,4
   24928:	2cc00017 	ldw	r19,0(r5)
   2492c:	183e4b0e 	bge	r3,zero,2425c <___vfprintf_internal_r+0x11fc>
   24930:	9d86b03a 	or	r3,r19,r22
   24934:	d8802d15 	stw	r2,180(sp)
   24938:	183e4c1e 	bne	r3,zero,2426c <___vfprintf_internal_r+0x120c>
   2493c:	0039883a 	mov	fp,zero
   24940:	0005883a 	mov	r2,zero
   24944:	003d4006 	br	23e48 <___vfprintf_internal_r+0xde8>
   24948:	014000f4 	movhi	r5,3
   2494c:	294d0c84 	addi	r5,r5,13362
   24950:	d9402b15 	stw	r5,172(sp)
   24954:	d9402b17 	ldw	r5,172(sp)
   24958:	1c47883a 	add	r3,r3,r17
   2495c:	10800044 	addi	r2,r2,1
   24960:	41400015 	stw	r5,0(r8)
   24964:	44400115 	stw	r17,4(r8)
   24968:	d8c02015 	stw	r3,128(sp)
   2496c:	d8801f15 	stw	r2,124(sp)
   24970:	010001c4 	movi	r4,7
   24974:	20bec816 	blt	r4,r2,24498 <___vfprintf_internal_r+0x1438>
   24978:	42000204 	addi	r8,r8,8
   2497c:	003ecd06 	br	244b4 <___vfprintf_internal_r+0x1454>
   24980:	d9002917 	ldw	r4,164(sp)
   24984:	d8002785 	stb	zero,158(sp)
   24988:	203d2d16 	blt	r4,zero,23e40 <___vfprintf_internal_r+0xde0>
   2498c:	00bfdfc4 	movi	r2,-129
   24990:	90a4703a 	and	r18,r18,r2
   24994:	003a9106 	br	233dc <___vfprintf_internal_r+0x37c>
   24998:	010000f4 	movhi	r4,3
   2499c:	210d0c84 	addi	r4,r4,13362
   249a0:	d9002b15 	stw	r4,172(sp)
   249a4:	003c0c06 	br	239d8 <___vfprintf_internal_r+0x978>
   249a8:	d9002c17 	ldw	r4,176(sp)
   249ac:	d9801e04 	addi	r6,sp,120
   249b0:	b80b883a 	mov	r5,r23
   249b4:	002ba680 	call	2ba68 <__sprint_r>
   249b8:	103aab1e 	bne	r2,zero,23468 <___vfprintf_internal_r+0x408>
   249bc:	d8c02017 	ldw	r3,128(sp)
   249c0:	da000404 	addi	r8,sp,16
   249c4:	003d4106 	br	23ecc <___vfprintf_internal_r+0xe6c>
   249c8:	d8801f17 	ldw	r2,124(sp)
   249cc:	014000f4 	movhi	r5,3
   249d0:	01000044 	movi	r4,1
   249d4:	18c00044 	addi	r3,r3,1
   249d8:	10800044 	addi	r2,r2,1
   249dc:	294d0404 	addi	r5,r5,13328
   249e0:	41000115 	stw	r4,4(r8)
   249e4:	41400015 	stw	r5,0(r8)
   249e8:	d8c02015 	stw	r3,128(sp)
   249ec:	d8801f15 	stw	r2,124(sp)
   249f0:	010001c4 	movi	r4,7
   249f4:	20805c16 	blt	r4,r2,24b68 <___vfprintf_internal_r+0x1b08>
   249f8:	42000204 	addi	r8,r8,8
   249fc:	8800041e 	bne	r17,zero,24a10 <___vfprintf_internal_r+0x19b0>
   24a00:	d8803317 	ldw	r2,204(sp)
   24a04:	1000021e 	bne	r2,zero,24a10 <___vfprintf_internal_r+0x19b0>
   24a08:	9080004c 	andi	r2,r18,1
   24a0c:	103c0926 	beq	r2,zero,23a34 <___vfprintf_internal_r+0x9d4>
   24a10:	d9003717 	ldw	r4,220(sp)
   24a14:	d8801f17 	ldw	r2,124(sp)
   24a18:	d9403417 	ldw	r5,208(sp)
   24a1c:	20c7883a 	add	r3,r4,r3
   24a20:	10800044 	addi	r2,r2,1
   24a24:	41000115 	stw	r4,4(r8)
   24a28:	41400015 	stw	r5,0(r8)
   24a2c:	d8c02015 	stw	r3,128(sp)
   24a30:	d8801f15 	stw	r2,124(sp)
   24a34:	010001c4 	movi	r4,7
   24a38:	20812116 	blt	r4,r2,24ec0 <___vfprintf_internal_r+0x1e60>
   24a3c:	42000204 	addi	r8,r8,8
   24a40:	0463c83a 	sub	r17,zero,r17
   24a44:	0440730e 	bge	zero,r17,24c14 <___vfprintf_internal_r+0x1bb4>
   24a48:	05800404 	movi	r22,16
   24a4c:	b440860e 	bge	r22,r17,24c68 <___vfprintf_internal_r+0x1c08>
   24a50:	014000f4 	movhi	r5,3
   24a54:	294d0c84 	addi	r5,r5,13362
   24a58:	d9402b15 	stw	r5,172(sp)
   24a5c:	070001c4 	movi	fp,7
   24a60:	dcc02c17 	ldw	r19,176(sp)
   24a64:	00000306 	br	24a74 <___vfprintf_internal_r+0x1a14>
   24a68:	42000204 	addi	r8,r8,8
   24a6c:	8c7ffc04 	addi	r17,r17,-16
   24a70:	b440800e 	bge	r22,r17,24c74 <___vfprintf_internal_r+0x1c14>
   24a74:	18c00404 	addi	r3,r3,16
   24a78:	10800044 	addi	r2,r2,1
   24a7c:	45000015 	stw	r20,0(r8)
   24a80:	45800115 	stw	r22,4(r8)
   24a84:	d8c02015 	stw	r3,128(sp)
   24a88:	d8801f15 	stw	r2,124(sp)
   24a8c:	e0bff60e 	bge	fp,r2,24a68 <___vfprintf_internal_r+0x1a08>
   24a90:	d9801e04 	addi	r6,sp,120
   24a94:	b80b883a 	mov	r5,r23
   24a98:	9809883a 	mov	r4,r19
   24a9c:	002ba680 	call	2ba68 <__sprint_r>
   24aa0:	103a711e 	bne	r2,zero,23468 <___vfprintf_internal_r+0x408>
   24aa4:	d8c02017 	ldw	r3,128(sp)
   24aa8:	d8801f17 	ldw	r2,124(sp)
   24aac:	da000404 	addi	r8,sp,16
   24ab0:	003fee06 	br	24a6c <___vfprintf_internal_r+0x1a0c>
   24ab4:	00bfffc4 	movi	r2,-1
   24ab8:	003a6f06 	br	23478 <___vfprintf_internal_r+0x418>
   24abc:	008011c4 	movi	r2,71
   24ac0:	1440b816 	blt	r2,r17,24da4 <___vfprintf_internal_r+0x1d44>
   24ac4:	040000f4 	movhi	r16,3
   24ac8:	840cf604 	addi	r16,r16,13272
   24acc:	00c000c4 	movi	r3,3
   24ad0:	00bfdfc4 	movi	r2,-129
   24ad4:	d8c02a15 	stw	r3,168(sp)
   24ad8:	90a4703a 	and	r18,r18,r2
   24adc:	df002783 	ldbu	fp,158(sp)
   24ae0:	d8c02e15 	stw	r3,184(sp)
   24ae4:	d8002915 	stw	zero,164(sp)
   24ae8:	d8003215 	stw	zero,200(sp)
   24aec:	003b2906 	br	23794 <___vfprintf_internal_r+0x734>
   24af0:	d9002d17 	ldw	r4,180(sp)
   24af4:	24c00017 	ldw	r19,0(r4)
   24af8:	21000104 	addi	r4,r4,4
   24afc:	d9002d15 	stw	r4,180(sp)
   24b00:	982dd7fa 	srai	r22,r19,31
   24b04:	b005883a 	mov	r2,r22
   24b08:	003a9f06 	br	23588 <___vfprintf_internal_r+0x528>
   24b0c:	d9402d17 	ldw	r5,180(sp)
   24b10:	d8c02f17 	ldw	r3,188(sp)
   24b14:	28800017 	ldw	r2,0(r5)
   24b18:	29400104 	addi	r5,r5,4
   24b1c:	d9402d15 	stw	r5,180(sp)
   24b20:	10c00015 	stw	r3,0(r2)
   24b24:	00398606 	br	23140 <___vfprintf_internal_r+0xe0>
   24b28:	d9402d17 	ldw	r5,180(sp)
   24b2c:	002d883a 	mov	r22,zero
   24b30:	2cc00017 	ldw	r19,0(r5)
   24b34:	29400104 	addi	r5,r5,4
   24b38:	d9402d15 	stw	r5,180(sp)
   24b3c:	003c2306 	br	23bcc <___vfprintf_internal_r+0xb6c>
   24b40:	d8c02d17 	ldw	r3,180(sp)
   24b44:	d9002917 	ldw	r4,164(sp)
   24b48:	002d883a 	mov	r22,zero
   24b4c:	18800104 	addi	r2,r3,4
   24b50:	1cc0000b 	ldhu	r19,0(r3)
   24b54:	203dc10e 	bge	r4,zero,2425c <___vfprintf_internal_r+0x11fc>
   24b58:	003f7506 	br	24930 <___vfprintf_internal_r+0x18d0>
   24b5c:	040000f4 	movhi	r16,3
   24b60:	840cf404 	addi	r16,r16,13264
   24b64:	003acc06 	br	23698 <___vfprintf_internal_r+0x638>
   24b68:	d9002c17 	ldw	r4,176(sp)
   24b6c:	d9801e04 	addi	r6,sp,120
   24b70:	b80b883a 	mov	r5,r23
   24b74:	002ba680 	call	2ba68 <__sprint_r>
   24b78:	103a3b1e 	bne	r2,zero,23468 <___vfprintf_internal_r+0x408>
   24b7c:	dc402617 	ldw	r17,152(sp)
   24b80:	d8c02017 	ldw	r3,128(sp)
   24b84:	da000404 	addi	r8,sp,16
   24b88:	003f9c06 	br	249fc <___vfprintf_internal_r+0x199c>
   24b8c:	ac400043 	ldbu	r17,1(r21)
   24b90:	94800814 	ori	r18,r18,32
   24b94:	ad400044 	addi	r21,r21,1
   24b98:	8c403fcc 	andi	r17,r17,255
   24b9c:	8c40201c 	xori	r17,r17,128
   24ba0:	8c7fe004 	addi	r17,r17,-128
   24ba4:	00398f06 	br	231e4 <___vfprintf_internal_r+0x184>
   24ba8:	d8c02d15 	stw	r3,180(sp)
   24bac:	0039883a 	mov	fp,zero
   24bb0:	003e3506 	br	24488 <___vfprintf_internal_r+0x1428>
   24bb4:	d9002c17 	ldw	r4,176(sp)
   24bb8:	d9801e04 	addi	r6,sp,120
   24bbc:	b80b883a 	mov	r5,r23
   24bc0:	002ba680 	call	2ba68 <__sprint_r>
   24bc4:	103a281e 	bne	r2,zero,23468 <___vfprintf_internal_r+0x408>
   24bc8:	d8c02017 	ldw	r3,128(sp)
   24bcc:	da000404 	addi	r8,sp,16
   24bd0:	003cd006 	br	23f14 <___vfprintf_internal_r+0xeb4>
   24bd4:	8009883a 	mov	r4,r16
   24bd8:	da003d15 	stw	r8,244(sp)
   24bdc:	0020df00 	call	20df0 <strlen>
   24be0:	d8802e15 	stw	r2,184(sp)
   24be4:	da003d17 	ldw	r8,244(sp)
   24be8:	103c340e 	bge	r2,zero,23cbc <___vfprintf_internal_r+0xc5c>
   24bec:	0005883a 	mov	r2,zero
   24bf0:	003c3206 	br	23cbc <___vfprintf_internal_r+0xc5c>
   24bf4:	d9002c17 	ldw	r4,176(sp)
   24bf8:	d9801e04 	addi	r6,sp,120
   24bfc:	b80b883a 	mov	r5,r23
   24c00:	002ba680 	call	2ba68 <__sprint_r>
   24c04:	103a181e 	bne	r2,zero,23468 <___vfprintf_internal_r+0x408>
   24c08:	d8c02017 	ldw	r3,128(sp)
   24c0c:	d8801f17 	ldw	r2,124(sp)
   24c10:	da000404 	addi	r8,sp,16
   24c14:	d9403317 	ldw	r5,204(sp)
   24c18:	10800044 	addi	r2,r2,1
   24c1c:	44000015 	stw	r16,0(r8)
   24c20:	28c7883a 	add	r3,r5,r3
   24c24:	003b7d06 	br	23a1c <___vfprintf_internal_r+0x9bc>
   24c28:	010000f4 	movhi	r4,3
   24c2c:	210d1084 	addi	r4,r4,13378
   24c30:	d9003515 	stw	r4,212(sp)
   24c34:	003b1406 	br	23888 <___vfprintf_internal_r+0x828>
   24c38:	013fffc4 	movi	r4,-1
   24c3c:	003a3506 	br	23514 <___vfprintf_internal_r+0x4b4>
   24c40:	0023883a 	mov	r17,zero
   24c44:	003d9d06 	br	242bc <___vfprintf_internal_r+0x125c>
   24c48:	d9002c17 	ldw	r4,176(sp)
   24c4c:	d9801e04 	addi	r6,sp,120
   24c50:	b80b883a 	mov	r5,r23
   24c54:	002ba680 	call	2ba68 <__sprint_r>
   24c58:	103a031e 	bne	r2,zero,23468 <___vfprintf_internal_r+0x408>
   24c5c:	d8c02017 	ldw	r3,128(sp)
   24c60:	da000404 	addi	r8,sp,16
   24c64:	003d9406 	br	242b8 <___vfprintf_internal_r+0x1258>
   24c68:	010000f4 	movhi	r4,3
   24c6c:	210d0c84 	addi	r4,r4,13362
   24c70:	d9002b15 	stw	r4,172(sp)
   24c74:	d9002b17 	ldw	r4,172(sp)
   24c78:	1c47883a 	add	r3,r3,r17
   24c7c:	10800044 	addi	r2,r2,1
   24c80:	41000015 	stw	r4,0(r8)
   24c84:	44400115 	stw	r17,4(r8)
   24c88:	d8c02015 	stw	r3,128(sp)
   24c8c:	d8801f15 	stw	r2,124(sp)
   24c90:	010001c4 	movi	r4,7
   24c94:	20bfd716 	blt	r4,r2,24bf4 <___vfprintf_internal_r+0x1b94>
   24c98:	42000204 	addi	r8,r8,8
   24c9c:	003fdd06 	br	24c14 <___vfprintf_internal_r+0x1bb4>
   24ca0:	d9002c17 	ldw	r4,176(sp)
   24ca4:	d9801e04 	addi	r6,sp,120
   24ca8:	b80b883a 	mov	r5,r23
   24cac:	002ba680 	call	2ba68 <__sprint_r>
   24cb0:	1039ed1e 	bne	r2,zero,23468 <___vfprintf_internal_r+0x408>
   24cb4:	d8802617 	ldw	r2,152(sp)
   24cb8:	d8c02017 	ldw	r3,128(sp)
   24cbc:	da000404 	addi	r8,sp,16
   24cc0:	003e1006 	br	24504 <___vfprintf_internal_r+0x14a4>
   24cc4:	00800044 	movi	r2,1
   24cc8:	10803fcc 	andi	r2,r2,255
   24ccc:	00c00044 	movi	r3,1
   24cd0:	10fa3526 	beq	r2,r3,235a8 <___vfprintf_internal_r+0x548>
   24cd4:	00c00084 	movi	r3,2
   24cd8:	10fbcb26 	beq	r2,r3,23c08 <___vfprintf_internal_r+0xba8>
   24cdc:	003a8f06 	br	2371c <___vfprintf_internal_r+0x6bc>
   24ce0:	010000f4 	movhi	r4,3
   24ce4:	210d1084 	addi	r4,r4,13378
   24ce8:	d9003515 	stw	r4,212(sp)
   24cec:	003b7606 	br	23ac8 <___vfprintf_internal_r+0xa68>
   24cf0:	d8802917 	ldw	r2,164(sp)
   24cf4:	00c00184 	movi	r3,6
   24cf8:	1880012e 	bgeu	r3,r2,24d00 <___vfprintf_internal_r+0x1ca0>
   24cfc:	1805883a 	mov	r2,r3
   24d00:	d8802e15 	stw	r2,184(sp)
   24d04:	1000ef16 	blt	r2,zero,250c4 <___vfprintf_internal_r+0x2064>
   24d08:	040000f4 	movhi	r16,3
   24d0c:	d8802a15 	stw	r2,168(sp)
   24d10:	dcc02d15 	stw	r19,180(sp)
   24d14:	d8002915 	stw	zero,164(sp)
   24d18:	d8003215 	stw	zero,200(sp)
   24d1c:	840d0204 	addi	r16,r16,13320
   24d20:	0039883a 	mov	fp,zero
   24d24:	003aa206 	br	237b0 <___vfprintf_internal_r+0x750>
   24d28:	0021883a 	mov	r16,zero
   24d2c:	003e0706 	br	2454c <___vfprintf_internal_r+0x14ec>
   24d30:	d9002c17 	ldw	r4,176(sp)
   24d34:	d9801e04 	addi	r6,sp,120
   24d38:	b80b883a 	mov	r5,r23
   24d3c:	002ba680 	call	2ba68 <__sprint_r>
   24d40:	1039c91e 	bne	r2,zero,23468 <___vfprintf_internal_r+0x408>
   24d44:	d8802617 	ldw	r2,152(sp)
   24d48:	d9403317 	ldw	r5,204(sp)
   24d4c:	d8c02017 	ldw	r3,128(sp)
   24d50:	da000404 	addi	r8,sp,16
   24d54:	2885c83a 	sub	r2,r5,r2
   24d58:	003dfb06 	br	24548 <___vfprintf_internal_r+0x14e8>
   24d5c:	9080004c 	andi	r2,r18,1
   24d60:	103e8f1e 	bne	r2,zero,247a0 <___vfprintf_internal_r+0x1740>
   24d64:	d8802117 	ldw	r2,132(sp)
   24d68:	003e9e06 	br	247e4 <___vfprintf_internal_r+0x1784>
   24d6c:	1025883a 	mov	r18,r2
   24d70:	0039883a 	mov	fp,zero
   24d74:	00800084 	movi	r2,2
   24d78:	003fd306 	br	24cc8 <___vfprintf_internal_r+0x1c68>
   24d7c:	07000b44 	movi	fp,45
   24d80:	df002785 	stb	fp,158(sp)
   24d84:	003a4006 	br	23688 <___vfprintf_internal_r+0x628>
   24d88:	00c00b44 	movi	r3,45
   24d8c:	d8c02785 	stb	r3,158(sp)
   24d90:	d8802a15 	stw	r2,168(sp)
   24d94:	dc802b17 	ldw	r18,172(sp)
   24d98:	d8002915 	stw	zero,164(sp)
   24d9c:	07000b44 	movi	fp,45
   24da0:	003a8006 	br	237a4 <___vfprintf_internal_r+0x744>
   24da4:	040000f4 	movhi	r16,3
   24da8:	840cf704 	addi	r16,r16,13276
   24dac:	003f4706 	br	24acc <___vfprintf_internal_r+0x1a6c>
   24db0:	d8c02d17 	ldw	r3,180(sp)
   24db4:	d9002f17 	ldw	r4,188(sp)
   24db8:	18800017 	ldw	r2,0(r3)
   24dbc:	18c00104 	addi	r3,r3,4
   24dc0:	d8c02d15 	stw	r3,180(sp)
   24dc4:	11000015 	stw	r4,0(r2)
   24dc8:	0038dd06 	br	23140 <___vfprintf_internal_r+0xe0>
   24dcc:	dd802617 	ldw	r22,152(sp)
   24dd0:	00bfff44 	movi	r2,-3
   24dd4:	b0801c16 	blt	r22,r2,24e48 <___vfprintf_internal_r+0x1de8>
   24dd8:	d9402917 	ldw	r5,164(sp)
   24ddc:	2d801a16 	blt	r5,r22,24e48 <___vfprintf_internal_r+0x1de8>
   24de0:	dd803215 	stw	r22,200(sp)
   24de4:	003e8906 	br	2480c <___vfprintf_internal_r+0x17ac>
   24de8:	010000f4 	movhi	r4,3
   24dec:	210d0c84 	addi	r4,r4,13362
   24df0:	d9002b15 	stw	r4,172(sp)
   24df4:	003c9106 	br	2403c <___vfprintf_internal_r+0xfdc>
   24df8:	e005883a 	mov	r2,fp
   24dfc:	003e7906 	br	247e4 <___vfprintf_internal_r+0x1784>
   24e00:	d9402917 	ldw	r5,164(sp)
   24e04:	df002783 	ldbu	fp,158(sp)
   24e08:	dcc02d15 	stw	r19,180(sp)
   24e0c:	d9402a15 	stw	r5,168(sp)
   24e10:	d9402e15 	stw	r5,184(sp)
   24e14:	d8002915 	stw	zero,164(sp)
   24e18:	d8003215 	stw	zero,200(sp)
   24e1c:	003a5d06 	br	23794 <___vfprintf_internal_r+0x734>
   24e20:	9080004c 	andi	r2,r18,1
   24e24:	0039883a 	mov	fp,zero
   24e28:	10000426 	beq	r2,zero,24e3c <___vfprintf_internal_r+0x1ddc>
   24e2c:	00800c04 	movi	r2,48
   24e30:	dc001dc4 	addi	r16,sp,119
   24e34:	d8801dc5 	stb	r2,119(sp)
   24e38:	003b8006 	br	23c3c <___vfprintf_internal_r+0xbdc>
   24e3c:	d8002e15 	stw	zero,184(sp)
   24e40:	dc001e04 	addi	r16,sp,120
   24e44:	003a4d06 	br	2377c <___vfprintf_internal_r+0x71c>
   24e48:	8c7fff84 	addi	r17,r17,-2
   24e4c:	b5bfffc4 	addi	r22,r22,-1
   24e50:	dd802615 	stw	r22,152(sp)
   24e54:	dc4022c5 	stb	r17,139(sp)
   24e58:	b000bf16 	blt	r22,zero,25158 <___vfprintf_internal_r+0x20f8>
   24e5c:	00800ac4 	movi	r2,43
   24e60:	d8802305 	stb	r2,140(sp)
   24e64:	00800244 	movi	r2,9
   24e68:	15807016 	blt	r2,r22,2502c <___vfprintf_internal_r+0x1fcc>
   24e6c:	00800c04 	movi	r2,48
   24e70:	b5800c04 	addi	r22,r22,48
   24e74:	d8802345 	stb	r2,141(sp)
   24e78:	dd802385 	stb	r22,142(sp)
   24e7c:	d88023c4 	addi	r2,sp,143
   24e80:	df0022c4 	addi	fp,sp,139
   24e84:	d8c03317 	ldw	r3,204(sp)
   24e88:	1739c83a 	sub	fp,r2,fp
   24e8c:	d9003317 	ldw	r4,204(sp)
   24e90:	e0c7883a 	add	r3,fp,r3
   24e94:	df003a15 	stw	fp,232(sp)
   24e98:	d8c02e15 	stw	r3,184(sp)
   24e9c:	00800044 	movi	r2,1
   24ea0:	1100b30e 	bge	r2,r4,25170 <___vfprintf_internal_r+0x2110>
   24ea4:	d8c02e17 	ldw	r3,184(sp)
   24ea8:	18c00044 	addi	r3,r3,1
   24eac:	d8c02e15 	stw	r3,184(sp)
   24eb0:	1805883a 	mov	r2,r3
   24eb4:	1800ac16 	blt	r3,zero,25168 <___vfprintf_internal_r+0x2108>
   24eb8:	d8003215 	stw	zero,200(sp)
   24ebc:	003e5d06 	br	24834 <___vfprintf_internal_r+0x17d4>
   24ec0:	d9002c17 	ldw	r4,176(sp)
   24ec4:	d9801e04 	addi	r6,sp,120
   24ec8:	b80b883a 	mov	r5,r23
   24ecc:	002ba680 	call	2ba68 <__sprint_r>
   24ed0:	1039651e 	bne	r2,zero,23468 <___vfprintf_internal_r+0x408>
   24ed4:	dc402617 	ldw	r17,152(sp)
   24ed8:	d8c02017 	ldw	r3,128(sp)
   24edc:	d8801f17 	ldw	r2,124(sp)
   24ee0:	da000404 	addi	r8,sp,16
   24ee4:	003ed606 	br	24a40 <___vfprintf_internal_r+0x19e0>
   24ee8:	582b883a 	mov	r21,r11
   24eec:	d8002915 	stw	zero,164(sp)
   24ef0:	0038bd06 	br	231e8 <___vfprintf_internal_r+0x188>
   24ef4:	d8802917 	ldw	r2,164(sp)
   24ef8:	103e071e 	bne	r2,zero,24718 <___vfprintf_internal_r+0x16b8>
   24efc:	dc002915 	stw	r16,164(sp)
   24f00:	003e0506 	br	24718 <___vfprintf_internal_r+0x16b8>
   24f04:	d9002917 	ldw	r4,164(sp)
   24f08:	20c00044 	addi	r3,r4,1
   24f0c:	003e0f06 	br	2474c <___vfprintf_internal_r+0x16ec>
   24f10:	01400184 	movi	r5,6
   24f14:	d9402915 	stw	r5,164(sp)
   24f18:	003dff06 	br	24718 <___vfprintf_internal_r+0x16b8>
   24f1c:	d8802104 	addi	r2,sp,132
   24f20:	d8800315 	stw	r2,12(sp)
   24f24:	d8802504 	addi	r2,sp,148
   24f28:	d8800215 	stw	r2,8(sp)
   24f2c:	d8802604 	addi	r2,sp,152
   24f30:	d8800115 	stw	r2,4(sp)
   24f34:	d8802917 	ldw	r2,164(sp)
   24f38:	d9403617 	ldw	r5,216(sp)
   24f3c:	d9002c17 	ldw	r4,176(sp)
   24f40:	d8800015 	stw	r2,0(sp)
   24f44:	01c000c4 	movi	r7,3
   24f48:	980d883a 	mov	r6,r19
   24f4c:	da003d15 	stw	r8,244(sp)
   24f50:	00256840 	call	25684 <_dtoa_r>
   24f54:	d8c02917 	ldw	r3,164(sp)
   24f58:	da003d17 	ldw	r8,244(sp)
   24f5c:	1021883a 	mov	r16,r2
   24f60:	10f9883a 	add	fp,r2,r3
   24f64:	81000007 	ldb	r4,0(r16)
   24f68:	00800c04 	movi	r2,48
   24f6c:	20805e26 	beq	r4,r2,250e8 <___vfprintf_internal_r+0x2088>
   24f70:	d8c02617 	ldw	r3,152(sp)
   24f74:	e0f9883a 	add	fp,fp,r3
   24f78:	003e0a06 	br	247a4 <___vfprintf_internal_r+0x1744>
   24f7c:	00c00b44 	movi	r3,45
   24f80:	24e0003c 	xorhi	r19,r4,32768
   24f84:	d8c02a05 	stb	r3,168(sp)
   24f88:	003de906 	br	24730 <___vfprintf_internal_r+0x16d0>
   24f8c:	d8c03217 	ldw	r3,200(sp)
   24f90:	00c07a0e 	bge	zero,r3,2517c <___vfprintf_internal_r+0x211c>
   24f94:	00800044 	movi	r2,1
   24f98:	d9003317 	ldw	r4,204(sp)
   24f9c:	1105883a 	add	r2,r2,r4
   24fa0:	d8802e15 	stw	r2,184(sp)
   24fa4:	10004e16 	blt	r2,zero,250e0 <___vfprintf_internal_r+0x2080>
   24fa8:	044019c4 	movi	r17,103
   24fac:	003e2106 	br	24834 <___vfprintf_internal_r+0x17d4>
   24fb0:	d9002917 	ldw	r4,164(sp)
   24fb4:	d8802104 	addi	r2,sp,132
   24fb8:	d8800315 	stw	r2,12(sp)
   24fbc:	d9000015 	stw	r4,0(sp)
   24fc0:	d8802504 	addi	r2,sp,148
   24fc4:	d9403617 	ldw	r5,216(sp)
   24fc8:	d9002c17 	ldw	r4,176(sp)
   24fcc:	d8800215 	stw	r2,8(sp)
   24fd0:	d8802604 	addi	r2,sp,152
   24fd4:	d8800115 	stw	r2,4(sp)
   24fd8:	01c000c4 	movi	r7,3
   24fdc:	980d883a 	mov	r6,r19
   24fe0:	da003d15 	stw	r8,244(sp)
   24fe4:	00256840 	call	25684 <_dtoa_r>
   24fe8:	d8c02917 	ldw	r3,164(sp)
   24fec:	da003d17 	ldw	r8,244(sp)
   24ff0:	1021883a 	mov	r16,r2
   24ff4:	00801184 	movi	r2,70
   24ff8:	80f9883a 	add	fp,r16,r3
   24ffc:	88bfd926 	beq	r17,r2,24f64 <___vfprintf_internal_r+0x1f04>
   25000:	003de806 	br	247a4 <___vfprintf_internal_r+0x1744>
   25004:	d9002917 	ldw	r4,164(sp)
   25008:	00c04d0e 	bge	zero,r3,25140 <___vfprintf_internal_r+0x20e0>
   2500c:	2000441e 	bne	r4,zero,25120 <___vfprintf_internal_r+0x20c0>
   25010:	9480004c 	andi	r18,r18,1
   25014:	9000421e 	bne	r18,zero,25120 <___vfprintf_internal_r+0x20c0>
   25018:	1805883a 	mov	r2,r3
   2501c:	18007016 	blt	r3,zero,251e0 <___vfprintf_internal_r+0x2180>
   25020:	d8c03217 	ldw	r3,200(sp)
   25024:	d8c02e15 	stw	r3,184(sp)
   25028:	003e0206 	br	24834 <___vfprintf_internal_r+0x17d4>
   2502c:	df0022c4 	addi	fp,sp,139
   25030:	dc002915 	stw	r16,164(sp)
   25034:	4027883a 	mov	r19,r8
   25038:	e021883a 	mov	r16,fp
   2503c:	b009883a 	mov	r4,r22
   25040:	01400284 	movi	r5,10
   25044:	002e41c0 	call	2e41c <__modsi3>
   25048:	10800c04 	addi	r2,r2,48
   2504c:	843fffc4 	addi	r16,r16,-1
   25050:	b009883a 	mov	r4,r22
   25054:	01400284 	movi	r5,10
   25058:	80800005 	stb	r2,0(r16)
   2505c:	002e3980 	call	2e398 <__divsi3>
   25060:	102d883a 	mov	r22,r2
   25064:	00800244 	movi	r2,9
   25068:	15bff416 	blt	r2,r22,2503c <___vfprintf_internal_r+0x1fdc>
   2506c:	9811883a 	mov	r8,r19
   25070:	b0800c04 	addi	r2,r22,48
   25074:	8027883a 	mov	r19,r16
   25078:	997fffc4 	addi	r5,r19,-1
   2507c:	98bfffc5 	stb	r2,-1(r19)
   25080:	dc002917 	ldw	r16,164(sp)
   25084:	2f006a2e 	bgeu	r5,fp,25230 <___vfprintf_internal_r+0x21d0>
   25088:	d9c02384 	addi	r7,sp,142
   2508c:	3ccfc83a 	sub	r7,r7,r19
   25090:	d9002344 	addi	r4,sp,141
   25094:	e1cf883a 	add	r7,fp,r7
   25098:	00000106 	br	250a0 <___vfprintf_internal_r+0x2040>
   2509c:	28800003 	ldbu	r2,0(r5)
   250a0:	20800005 	stb	r2,0(r4)
   250a4:	21000044 	addi	r4,r4,1
   250a8:	29400044 	addi	r5,r5,1
   250ac:	393ffb1e 	bne	r7,r4,2509c <___vfprintf_internal_r+0x203c>
   250b0:	d8802304 	addi	r2,sp,140
   250b4:	14c5c83a 	sub	r2,r2,r19
   250b8:	d8c02344 	addi	r3,sp,141
   250bc:	1885883a 	add	r2,r3,r2
   250c0:	003f7006 	br	24e84 <___vfprintf_internal_r+0x1e24>
   250c4:	0005883a 	mov	r2,zero
   250c8:	003f0f06 	br	24d08 <___vfprintf_internal_r+0x1ca8>
   250cc:	d8c03217 	ldw	r3,200(sp)
   250d0:	18c00044 	addi	r3,r3,1
   250d4:	d8c02e15 	stw	r3,184(sp)
   250d8:	1805883a 	mov	r2,r3
   250dc:	183fb20e 	bge	r3,zero,24fa8 <___vfprintf_internal_r+0x1f48>
   250e0:	0005883a 	mov	r2,zero
   250e4:	003fb006 	br	24fa8 <___vfprintf_internal_r+0x1f48>
   250e8:	d9003617 	ldw	r4,216(sp)
   250ec:	000d883a 	mov	r6,zero
   250f0:	000f883a 	mov	r7,zero
   250f4:	980b883a 	mov	r5,r19
   250f8:	d8c03c15 	stw	r3,240(sp)
   250fc:	da003d15 	stw	r8,244(sp)
   25100:	002f6e00 	call	2f6e0 <__eqdf2>
   25104:	d8c03c17 	ldw	r3,240(sp)
   25108:	da003d17 	ldw	r8,244(sp)
   2510c:	103f9826 	beq	r2,zero,24f70 <___vfprintf_internal_r+0x1f10>
   25110:	00800044 	movi	r2,1
   25114:	10c7c83a 	sub	r3,r2,r3
   25118:	d8c02615 	stw	r3,152(sp)
   2511c:	003f9506 	br	24f74 <___vfprintf_internal_r+0x1f14>
   25120:	d9002917 	ldw	r4,164(sp)
   25124:	d8c03217 	ldw	r3,200(sp)
   25128:	20800044 	addi	r2,r4,1
   2512c:	1885883a 	add	r2,r3,r2
   25130:	d8802e15 	stw	r2,184(sp)
   25134:	103dbf0e 	bge	r2,zero,24834 <___vfprintf_internal_r+0x17d4>
   25138:	0005883a 	mov	r2,zero
   2513c:	003dbd06 	br	24834 <___vfprintf_internal_r+0x17d4>
   25140:	2000211e 	bne	r4,zero,251c8 <___vfprintf_internal_r+0x2168>
   25144:	9480004c 	andi	r18,r18,1
   25148:	90001f1e 	bne	r18,zero,251c8 <___vfprintf_internal_r+0x2168>
   2514c:	00800044 	movi	r2,1
   25150:	d8802e15 	stw	r2,184(sp)
   25154:	003db706 	br	24834 <___vfprintf_internal_r+0x17d4>
   25158:	00800b44 	movi	r2,45
   2515c:	05adc83a 	sub	r22,zero,r22
   25160:	d8802305 	stb	r2,140(sp)
   25164:	003f3f06 	br	24e64 <___vfprintf_internal_r+0x1e04>
   25168:	0005883a 	mov	r2,zero
   2516c:	003f5206 	br	24eb8 <___vfprintf_internal_r+0x1e58>
   25170:	90a4703a 	and	r18,r18,r2
   25174:	903f4e26 	beq	r18,zero,24eb0 <___vfprintf_internal_r+0x1e50>
   25178:	003f4a06 	br	24ea4 <___vfprintf_internal_r+0x1e44>
   2517c:	00800084 	movi	r2,2
   25180:	10c5c83a 	sub	r2,r2,r3
   25184:	003f8406 	br	24f98 <___vfprintf_internal_r+0x1f38>
   25188:	d8802d17 	ldw	r2,180(sp)
   2518c:	d9002d17 	ldw	r4,180(sp)
   25190:	ac400043 	ldbu	r17,1(r21)
   25194:	10800017 	ldw	r2,0(r2)
   25198:	582b883a 	mov	r21,r11
   2519c:	d8802915 	stw	r2,164(sp)
   251a0:	20800104 	addi	r2,r4,4
   251a4:	d9002917 	ldw	r4,164(sp)
   251a8:	d8802d15 	stw	r2,180(sp)
   251ac:	203e7a0e 	bge	r4,zero,24b98 <___vfprintf_internal_r+0x1b38>
   251b0:	8c403fcc 	andi	r17,r17,255
   251b4:	00bfffc4 	movi	r2,-1
   251b8:	8c40201c 	xori	r17,r17,128
   251bc:	d8802915 	stw	r2,164(sp)
   251c0:	8c7fe004 	addi	r17,r17,-128
   251c4:	00380706 	br	231e4 <___vfprintf_internal_r+0x184>
   251c8:	d8c02917 	ldw	r3,164(sp)
   251cc:	18c00084 	addi	r3,r3,2
   251d0:	d8c02e15 	stw	r3,184(sp)
   251d4:	1805883a 	mov	r2,r3
   251d8:	183d960e 	bge	r3,zero,24834 <___vfprintf_internal_r+0x17d4>
   251dc:	003fd606 	br	25138 <___vfprintf_internal_r+0x20d8>
   251e0:	0005883a 	mov	r2,zero
   251e4:	003f8e06 	br	25020 <___vfprintf_internal_r+0x1fc0>
   251e8:	9080004c 	andi	r2,r18,1
   251ec:	103f811e 	bne	r2,zero,24ff4 <___vfprintf_internal_r+0x1f94>
   251f0:	d8802117 	ldw	r2,132(sp)
   251f4:	1405c83a 	sub	r2,r2,r16
   251f8:	d8803315 	stw	r2,204(sp)
   251fc:	b47ef326 	beq	r22,r17,24dcc <___vfprintf_internal_r+0x1d6c>
   25200:	dd802617 	ldw	r22,152(sp)
   25204:	003f1106 	br	24e4c <___vfprintf_internal_r+0x1dec>
   25208:	d9c02785 	stb	r7,158(sp)
   2520c:	00390406 	br	23620 <___vfprintf_internal_r+0x5c0>
   25210:	d9c02785 	stb	r7,158(sp)
   25214:	0038d306 	br	23564 <___vfprintf_internal_r+0x504>
   25218:	d9c02785 	stb	r7,158(sp)
   2521c:	003a6106 	br	23ba4 <___vfprintf_internal_r+0xb44>
   25220:	d9c02785 	stb	r7,158(sp)
   25224:	003af806 	br	23e08 <___vfprintf_internal_r+0xda8>
   25228:	0005883a 	mov	r2,zero
   2522c:	003d7e06 	br	24828 <___vfprintf_internal_r+0x17c8>
   25230:	d8802344 	addi	r2,sp,141
   25234:	003f1306 	br	24e84 <___vfprintf_internal_r+0x1e24>
   25238:	d9c02785 	stb	r7,158(sp)
   2523c:	00392306 	br	236cc <___vfprintf_internal_r+0x66c>
   25240:	d9c02785 	stb	r7,158(sp)
   25244:	003aa906 	br	23cec <___vfprintf_internal_r+0xc8c>
   25248:	d9c02785 	stb	r7,158(sp)
   2524c:	003a3d06 	br	23b44 <___vfprintf_internal_r+0xae4>
   25250:	d9c02785 	stb	r7,158(sp)
   25254:	003aca06 	br	23d80 <___vfprintf_internal_r+0xd20>

